ccopy_reg
_reconstructor
p1
(cdjango.db.models.query
ValuesQuerySet
p2
c__builtin__
object
p3
NtRp4
(dp5
S'_iter'
p6
NsS'_prefetch_related_lookups'
p7
(lp8
sS'aggregate_names'
p9
NsS'_sticky_filter'
p10
I00
sS'extra_names'
p11
NsS'_db'
p12
NsS'_result_cache'
p13
(lp14
(dp15
S'from_stop_id'
p16
I1
sS'to_stop_id'
p17
I57
sS'id'
p18
I1
sS'name'
p19
VManapa bhavan to Chakan MIDC
p20
sS'number'
p21
V120
p22
sa(dp23
g16
I58
sg17
I90
sg18
I2
sg19
VPune Station to Dange chowk
p24
sg21
V6S
p25
sa(dp26
g16
I91
sg17
I100
sg18
I3
sg19
VSwargate to Shivajinagar Circle route
p27
sg21
V1
sa(dp28
g16
I57
sg17
I116
sg18
I4
sg19
VManapa to Ishan nagari
p29
sg21
V12S
p30
sa(dp31
g16
I91
sg17
I145
sg18
I5
sg19
VSwargate to Lohgaon
p32
sg21
V46
p33
sa(dp34
g16
I1
sg17
I57
sg18
I6
sg19
VManapa bhavan to Chakan MIDC
p35
sg21
V120
p36
sa(dp37
g16
I58
sg17
I90
sg18
I7
sg19
VPune Station to Dange chowk
p38
sg21
V6S
p39
sa(dp40
g16
I91
sg17
I100
sg18
I8
sg19
VSwargate to Shivajinagar Circle route
p41
sg21
V1
sa(dp42
g16
I57
sg17
I116
sg18
I9
sg19
VManapa to Ishan nagari
p43
sg21
V12S
p44
sa(dp45
g16
I190
sg17
I221
sg18
I50
sg19
VMarket yard to Khanapur
p46
sg21
V240
p47
sa(dp48
g16
I91
sg17
I145
sg18
I10
sg19
VSwargate to Lohgaon
p49
sg21
V46
p50
sa(dp51
g16
I1
sg17
I57
sg18
I11
sg19
VManapa bhavan to Chakan MIDC
p52
sg21
V120
p53
sa(dp54
g16
I58
sg17
I90
sg18
I12
sg19
VPune Station to Dange chowk
p55
sg21
V6S
p56
sa(dp57
g16
I91
sg17
I100
sg18
I13
sg19
VSwargate to Shivajinagar Circle route
p58
sg21
V1
sa(dp59
g16
I57
sg17
I116
sg18
I14
sg19
VManapa to Ishan nagari
p60
sg21
V12S
p61
sa(dp62
g16
I91
sg17
I145
sg18
I15
sg19
VSwargate to Lohgaon
p63
sg21
V46
p64
sa(dp65
g16
I1
sg17
I57
sg18
I16
sg19
VManapa bhavan to Chakan MIDC
p66
sg21
V120
p67
sa(dp68
g16
I58
sg17
I90
sg18
I17
sg19
VPune Station to Dange chowk
p69
sg21
V6S
p70
sa(dp71
g16
I91
sg17
I100
sg18
I18
sg19
VSwargate to Shivajinagar Circle route
p72
sg21
V1
sa(dp73
g16
I57
sg17
I116
sg18
I19
sg19
VManapa to Ishan nagari
p74
sg21
V12S
p75
sa(dp76
g16
I91
sg17
I145
sg18
I20
sg19
VSwargate to Lohgaon
p77
sg21
V46
p78
sa(dp79
g16
I1
sg17
I57
sg18
I21
sg19
VManapa bhavan to Chakan MIDC
p80
sg21
V120
p81
sa(dp82
g16
I58
sg17
I90
sg18
I22
sg19
VPune Station to Dange chowk
p83
sg21
V6S
p84
sa(dp85
g16
I91
sg17
I100
sg18
I23
sg19
VSwargate to Shivajinagar Circle route
p86
sg21
V1
sa(dp87
g16
I57
sg17
I116
sg18
I24
sg19
VManapa to Ishan nagari
p88
sg21
V12S
p89
sa(dp90
g16
I91
sg17
I145
sg18
I25
sg19
VSwargate to Lohgaon
p91
sg21
V46
p92
sa(dp93
g16
I1
sg17
I57
sg18
I26
sg19
VManapa bhavan to Chakan MIDC
p94
sg21
V120
p95
sa(dp96
g16
I58
sg17
I90
sg18
I27
sg19
VPune Station to Dange chowk
p97
sg21
V6S
p98
sa(dp99
g16
I91
sg17
I100
sg18
I28
sg19
VSwargate to Shivajinagar Circle route
p100
sg21
V1
sa(dp101
g16
I57
sg17
I116
sg18
I29
sg19
VManapa to Ishan nagari
p102
sg21
V12S
p103
sa(dp104
g16
I91
sg17
I145
sg18
I30
sg19
VSwargate to Lohgaon
p105
sg21
V46
p106
sa(dp107
g16
I1
sg17
I57
sg18
I31
sg19
VManapa bhavan to Chakan MIDC
p108
sg21
V120
p109
sa(dp110
g16
I58
sg17
I90
sg18
I32
sg19
VPune Station to Dange chowk
p111
sg21
V6S
p112
sa(dp113
g16
I91
sg17
I100
sg18
I33
sg19
VSwargate to Shivajinagar Circle route
p114
sg21
V1
sa(dp115
g16
I57
sg17
I116
sg18
I34
sg19
VManapa to Ishan nagari
p116
sg21
V12S
p117
sa(dp118
g16
I91
sg17
I145
sg18
I35
sg19
VSwargate to Lohgaon
p119
sg21
V46
p120
sa(dp121
g16
I1
sg17
I57
sg18
I36
sg19
VManapa bhavan to Chakan MIDC
p122
sg21
V120
p123
sa(dp124
g16
I58
sg17
I90
sg18
I37
sg19
VPune Station to Dange chowk
p125
sg21
V6S
p126
sa(dp127
g16
I91
sg17
I100
sg18
I38
sg19
VSwargate to Shivajinagar Circle route
p128
sg21
V1
sa(dp129
g16
I57
sg17
I116
sg18
I39
sg19
VManapa to Ishan nagari
p130
sg21
V12S
p131
sa(dp132
g16
I91
sg17
I145
sg18
I40
sg19
VSwargate to Lohgaon
p133
sg21
V46
p134
sa(dp135
g16
I1
sg17
I57
sg18
I41
sg19
VManapa bhavan to Chakan MIDC
p136
sg21
V120
p137
sa(dp138
g16
I58
sg17
I90
sg18
I42
sg19
VPune Station to Dange chowk
p139
sg21
V6S
p140
sa(dp141
g16
I91
sg17
I100
sg18
I43
sg19
VSwargate to Shivajinagar Circle route
p142
sg21
V1
sa(dp143
g16
I57
sg17
I116
sg18
I44
sg19
VManapa to Ishan nagari
p144
sg21
V12S
p145
sa(dp146
g16
I91
sg17
I145
sg18
I45
sg19
VSwargate to Lohgaon
p147
sg21
V46
p148
sa(dp149
g16
I146
sg17
I158
sg18
I46
sg19
VKatraj to Shivajinagar Station
p150
sg21
V2
sa(dp151
g16
I28
sg17
I57
sg18
I47
sg19
VBhosari to Manapa bhavan
p152
sg21
V121
p153
sa(dp154
g16
I160
sg17
I168
sg18
I48
sg19
VAmbegaon to Shaniwar wada
p155
sg21
V216
p156
sa(dp157
g16
I146
sg17
I189
sg18
I49
sg19
VKatraj to Khadakwasala
p158
sg21
V294
p159
sa(dp160
g16
I91
sg17
I239
sg18
I51
sg19
VSwaragte to Kalyani nagar
p161
sg21
V63
p162
sa(dp163
g16
I60
sg17
I257
sg18
I52
sg19
VPune Station to Sangvi
p164
sg21
V205P
p165
sa(dp166
g16
I258
sg17
I273
sg18
I53
sg19
VHadapsar to Udri
p167
sg21
V192
p168
sa(dp169
g16
I91
sg17
I290
sg18
I54
sg19
VSwargate to Pune Vidyapeeth
p170
sg21
V60
p171
sa(dp172
g16
I146
sg17
I334
sg18
I55
sg19
VKatraj to Nigdi bypass
p173
sg21
V43
p174
sa(dp175
g16
I335
sg17
I57
sg18
I56
sg19
VChikhali to Manapa bhavan
p176
sg21
V323
p177
sa(dp178
g16
I355
sg17
I364
sg18
I57
sg19
VWarje malwadi to Chinchwad gaon
p179
sg21
V276
p180
sa(dp181
g16
I365
sg17
I382
sg18
I58
sg19
VPimpri gaon to Bhosari
p182
sg21
V302
p183
sa(dp184
g16
I383
sg17
I401
sg18
I59
sg19
VKondhava gate to Khadaki bajar
p185
sg21
V277
p186
sa(dp187
g16
I91
sg17
I433
sg18
I60
sg19
VSwaragate to Rahatwade
p188
sg21
V292R
p189
sa(dp190
g16
I335
sg17
I90
sg18
I61
sg19
VChikhali to Dange Chauk
p191
sg21
V355
p192
sa(dp193
g16
I146
sg17
I448
sg18
I62
sg19
VKatraj to Swargate Mandai
p194
sg21
V3S
p195
sa(dp196
g16
I57
sg17
I57
sg18
I63
sg19
VManapa to Manapa via Karve road
p197
sg21
V110
p198
sa(dp199
g16
I57
sg17
I517
sg18
I64
sg19
VManapa bhavan Telegaon Dabhade
p200
sg21
V127
p201
sa(dp202
g16
I518
sg17
I58
sg18
I65
sg19
VJambhe to Pune Station via Punawale
p203
sg21
V335
p204
sa(dp205
g16
I533
sg17
I550
sg18
I66
sg19
VManapa to Khulewadi
p206
sg21
V236
p207
sa(dp208
g16
I258
sg17
I586
sg18
I67
sg19
VHadapasar to Uruli Kanchan Railway Staion
p209
sg21
V9
sa(dp210
g16
I587
sg17
I229
sg18
I68
sg19
VSahakar nagar to Pune Station
p211
sg21
V20
p212
sa(dp213
g16
I600
sg17
I58
sg18
I69
sg19
VNigadi to Pune Station via Yerwada
p214
sg21
V366
p215
sa(dp216
g16
I611
sg17
I91
sg18
I70
sg19
VSutardara to Swargate via Mandai
p217
sg21
V68S
p218
sa(dp219
g16
I624
sg17
I625
sg18
I71
sg19
VShanipar to Pandavnagar
p220
sg21
V58P
p221
sa(dp222
g16
I91
sg17
I430
sg18
I72
sg19
VSwargate to Avasarwadi
p223
sg21
V292A
p224
sa(dp225
g16
I626
sg17
I58
sg18
I73
sg19
VSambhajinagar to Pune Station
p226
sg21
V317
p227
sa(dp228
g16
I91
sg17
I630
sg18
I74
sg19
VSwargate to Wadgaon Bu
p229
sg21
V118
p230
sa(dp231
g16
I258
sg17
I229
sg18
I75
sg19
VHadapsar to Pune Station
p232
sg21
V187
p233
sa(dp234
g16
I650
sg17
I229
sg18
I76
sg19
VSai Sayaji nagar to Pune Station
p235
sg21
V144A
p236
sa(dp237
g16
I654
sg17
I334
sg18
I77
sg19
VUppar Depot to Nigadi
p238
sg21
V12
p239
sa(dp240
g16
I146
sg17
I676
sg18
I78
sg19
VKatraj to Pimple Gurav
p241
sg21
V11K
p242
sa(dp243
g16
I677
sg17
I694
sg18
I79
sg19
VKumbre park to Sainathnagar
p244
sg21
V144B
p245
sa(dp246
g16
I102
sg17
I717
sg18
I80
sg19
VDeccan gymkhana to Ghotawade phata
p247
sg21
V11S
p248
sa(dp249
g16
I146
sg17
I732
sg18
I81
sg19
VKatraj to Nasrapur
p250
sg21
V61
p251
sa(dp252
g16
I91
sg17
I268
sg18
I82
sg19
VSwargate to Mohmmadwadi
p253
sg21
V176
p254
sa(dp255
g16
I258
sg17
I459
sg18
I83
sg19
VHadapsar to Kothrud Depot
p256
sg21
V197
p257
sa(dp258
g16
I91
sg17
I771
sg18
I84
sg19
VSwargate to Wadgaon Sheri
p259
sg21
V6
sa(dp260
g16
I772
sg17
I798
sg18
I85
sg19
VPune Station to Wadgaon Shinde
p261
sg21
V131
p262
sa(dp263
g16
I229
sg17
I804
sg18
I86
sg19
VPune Station to Viman nagar
p264
sg21
V166
p265
sa(dp266
g16
I805
sg17
I58
sg18
I87
sg19
VDehugaon Pune Station Via Yerwada
p267
sg21
V329A
p268
sa(dp269
g16
I258
sg17
I829
sg18
I88
sg19
VHadapsar to Uruli Kanchan
p270
sg21
V7A
p271
sa(dp272
g16
I533
sg17
I858
sg18
I89
sg19
VManapa bhavan to Pimpri Sandas
p273
sg21
V147
p274
sa(dp275
g16
I533
sg17
I694
sg18
I90
sg19
VManapa to Sainathnagar
p276
sg21
V133
p277
sa(dp278
g16
I190
sg17
I876
sg18
I91
sg19
VMarket yard to Kondhava gate
p279
sg21
V78
p280
sa(dp281
g16
I91
sg17
I883
sg18
I92
sg19
VSwargate to Niljyoti
p282
sg21
V89
p283
sa(dp284
g16
I884
sg17
I899
sg18
I93
sg19
VChintamani chauk to Pimpri manapa
p285
sg21
V307
p286
sa(dp287
g16
I57
sg17
I914
sg18
I94
sg19
VManama bhavan to Karandi 
p288
sg21
V162
p289
sa(dp290
g16
I91
sg17
I918
sg18
I95
sg19
VSwargate to Wakadgaon
p291
sg21
V225
p292
sa(dp293
g16
I919
sg17
I257
sg18
I96
sg19
VA B Chowk to Sangvi
p294
sg21
V113
p295
sa(dp296
g16
I920
sg17
I933
sg18
I97
sg19
VMhaske wasti to Pimple nilakh
p297
sg21
V126
p298
sa(dp299
g16
I91
sg17
I459
sg18
I98
sg19
VSwargate to Kothrud Depot
p300
sg21
V68
p301
sa(dp302
g16
I934
sg17
I971
sg18
I99
sg19
VDapodi Gaon to Alandi
p303
sg21
V347
p304
sa(dp305
g16
I58
sg17
I876
sg18
I100
sg19
VPune Station to NDA gate
p306
sg21
V174
p307
sa(dp308
g16
I19
sg17
I364
sg18
I101
sg19
VMoshi to Chinchwad gaon
p309
sg21
V306
p310
sa(dp311
g16
I611
sg17
I229
sg18
I102
sg19
VSutardara to Pune Station
p312
sg21
V108
p313
sa(dp314
g16
I658
sg17
I258
sg18
I103
sg19
VBibvewadi to Hadpasar
p315
sg21
V291A
p316
sa(dp317
g16
I1016
sg17
I102
sg18
I104
sg19
VDeccan to Lohgaon Airport
p318
sg21
V158B
p319
sa(dp320
g16
I28
sg17
I258
sg18
I105
sg19
VBhosari to Hadapsar
p321
sg21
V346A
p322
sa(dp323
g16
I365
sg17
I58
sg18
I106
sg19
VPimpri gaon to Pune Station via Wakdewadi
p324
sg21
V311A
p325
sa(dp326
g16
I334
sg17
I971
sg18
I107
sg19
VNigadi to Alandi via Chinchwad
p327
sg21
V303
p328
sa(dp329
g16
I190
sg17
I1054
sg18
I108
sg19
VMarket yard to Ghotawade gaon
p330
sg21
V69
p331
sa(dp332
g16
I989
sg17
I57
sg18
I109
sg19
VMohan nagar to Manapa via Aundh
p333
sg21
V341
p334
sa(dp335
g16
I91
sg17
I624
sg18
I110
sg19
VSwargate to Pandavnagar
p336
sg21
V90P
p337
sa(dp338
g16
I258
sg17
I1065
sg18
I111
sg19
VHadapsar to Mhalunge Gaon
p339
sg21
V114A
p340
sa(dp341
g16
I772
sg17
I1068
sg18
I112
sg19
VPune Station to Gokhalenagar
p342
sg21
V146
p343
sa(dp344
g16
I146
sg17
I364
sg18
I113
sg19
VKatraj to Chinchwad gaon
p345
sg21
V298
p346
sa(dp347
g16
I805
sg17
I971
sg18
I114
sg19
VDehugaon to Alandi
p348
sg21
V309
p349
sa(dp350
g16
I258
sg17
I1089
sg18
I115
sg19
VHadapsar to Manjri bu
p351
sg21
V185
p352
sa(dp353
g16
I772
sg17
I1104
sg18
I116
sg19
VPune Station to Suncity
p354
sg21
V57A
p355
sa(dp356
g16
I166
sg17
I448
sg18
I117
sg19
VBharati Vidyapeeth to Shanipar Mandai
p357
sg21
V1S
p358
sa(dp359
g16
I258
sg17
I257
sg18
I118
sg19
VHadapsar to Sangvi gaon
p360
sg21
V205
p361
sa(dp362
g16
I1120
sg17
I229
sg18
I119
sg19
VDhankavadi to Pune Station
p363
sg21
V26
p364
sa(dp365
g16
I625
sg17
I630
sg18
I120
sg19
VShanipar to Wadgaon
p366
sg21
V56
p367
sa(dp368
g16
I166
sg17
I139
sg18
I121
sg19
VBharti Vidyapeeth to Vishrantwadi
p369
sg21
V229
p370
sa(dp371
g16
I91
sg17
I229
sg18
I122
sg19
VSwaragte to Pune Station
p372
sg21
V3
sa(dp373
g16
I485
sg17
I373
sg18
I123
sg19
VPimpri manapa to Pimpri manapa via Chinchwad station Circle
p374
sg21
V371
p375
sa(dp376
g16
I355
sg17
I676
sg18
I124
sg19
VWarje Malwadi to Pimple Gurav
p377
sg21
V96
p378
sa(dp379
g16
I1136
sg17
I57
sg18
I125
sg19
VManapa bhavan to Talegaon Dhamdhere
p380
sg21
V159
p381
sa(dp382
g16
I57
sg17
I299
sg18
I126
sg19
VManapa bhavan to Cipla center
p383
sg21
V80
p384
sa(dp385
g16
I91
sg17
I355
sg18
I127
sg19
VSwargate to Warje Malwadi
p386
sg21
V64
p387
sa(dp388
g16
I654
sg17
I229
sg18
I128
sg19
VRajiv Gandhinagar to Pune Station
p389
sg21
V23
p390
sa(dp391
g16
I57
sg17
I676
sg18
I129
sg19
VManapa to Pimple Gurav
p392
sg21
V113B
p393
sa(dp394
g16
I355
sg17
I158
sg18
I130
sg19
VWarje Malwadi to Shivajinagar
p395
sg21
V79
p396
sa(dp397
g16
I57
sg17
I355
sg18
I131
sg19
VManapa bhavan to Warje malwadi
p398
sg21
V83
p399
sa(dp400
g16
I971
sg17
I1065
sg18
I132
sg19
VAlandi to Mhalunge gaon
p401
sg21
V320
p402
sa(dp403
g16
I533
sg17
I145
sg18
I133
sg19
VManapa to Lohgaon
p404
sg21
V158
p405
sa(dp406
g16
I334
sg17
I258
sg18
I134
sg19
VNigadi to Hadapsar
p407
sg21
V139A
p408
sa(dp409
g16
I229
sg17
I798
sg18
I135
sg19
VPune Station to Wadgaon Shinde
p410
sg21
V131
p411
sa(dp412
g16
I91
sg17
I971
sg18
I136
sg19
VSwargate to Alandi devachi
p413
sg21
V29
p414
sa(dp415
g16
I190
sg17
I257
sg18
I137
sg19
VMarket yard to Sangvi
p416
sg21
V41
p417
sa(dp418
g16
I57
sg17
I364
sg18
I138
sg19
VManapa to Chinchwad Gaon
p419
sg21
V36
p420
sa(dp421
g16
I654
sg17
I1176
sg18
I139
sg19
VUpper Depot to Pune station
p422
sg21
V140
p423
sa(dp424
g16
I365
sg17
I139
sg18
I140
sg19
VPimpri gaon to Vishrantwadi
p425
sg21
V349
p426
sa(dp427
g16
I1193
sg17
I600
sg18
I141
sg19
VNigadi to Kiwale
p428
sg21
V363
p429
sa(dp430
g16
I373
sg17
I1221
sg18
I142
sg19
VPimpri Manapa toRajgurunagar
p431
sg21
V358
p432
sa(dp433
g16
I190
sg17
I1230
sg18
I143
sg19
VMarket yard to Marnewadi
p434
sg21
V227
p435
sa(dp436
g16
I91
sg17
I1236
sg18
I144
sg19
VSwargate to Kalyan
p437
sg21
V292K
p438
sa(dp439
g16
I91
sg17
I355
sg18
I145
sg19
VSwagate to Warje Malwadi
p440
sg21
V64A
p441
sa(dp442
g16
I772
sg17
I221
sg18
I146
sg19
VPune Station to Khanapur
p443
sg21
V49
p444
sa(dp445
g16
I625
sg17
I883
sg18
I147
sg19
VShanipar to Niljyoti
p446
sg21
V59
p447
sa(dp448
g16
I258
sg17
I91
sg18
I148
sg19
VHadapsar to Swargate
p449
sg21
V1R
p450
sa(dp451
g16
I1244
sg17
I158
sg18
I149
sg19
VYewlewadi to Shivajinagar
p452
sg21
V130
p453
sa(dp454
g16
I600
sg17
I364
sg18
I150
sg19
VNigadi to Chinchwad gaon
p455
sg21
V14s
p456
sa(dp457
g16
I91
sg17
I145
sg18
I151
sg19
VSwargate to Lohgaon
p458
sg21
V157
p459
sa(dp460
g16
I91
sg17
I1256
sg18
I152
sg19
VSwaragte to Dhayari gaon
p461
sg21
V117
p462
sa(dp463
g16
I600
sg17
I258
sg18
I153
sg19
VNigadi to Hadapsar via Masulkar Colony
p464
sg21
V376B
p465
sa(dp466
g16
I102
sg17
I1276
sg18
I154
sg19
VDeccan gymkhana to Paudgaon
p467
sg21
V70
p468
sa(dp469
g16
I60
sg17
I1280
sg18
I155
sg19
VPune Station to Vidyanagar
p470
sg21
V134
p471
sa(dp472
g16
I229
sg17
I1285
sg18
I156
sg19
VPune Station to Kharadi
p473
sg21
V163
p474
sa(dp475
g16
I258
sg17
I676
sg18
I157
sg19
VHadapsar to Pimple Gurav
p476
sg21
V148
p477
sa(dp478
g16
I334
sg17
I146
sg18
I158
sg19
VBhakti Shakti to Katraj
p479
sg21
V42A
p480
sa(dp481
g16
I91
sg17
I1068
sg18
I159
sg19
VSwargate to Gokhalenagar
p482
sg21
V90
p483
sa(dp484
g16
I1120
sg17
I100
sg18
I160
sg19
VDhanakwadi to Natawadi
p485
sg21
V38
p486
sa(dp487
g16
I258
sg17
I837
sg18
I161
sg19
VHadapsar to Wagholi Kesanand phata
p488
sg21
V167
p489
sa(dp490
g16
I1290
sg17
I971
sg18
I162
sg19
VHinjewadi phase2  to Alandi
p491
sg21
V327
p492
sa(dp493
g16
I190
sg17
I1276
sg18
I163
sg19
VMarket yard to Paudgaon
p494
sg21
V233
p495
sa(dp496
g16
I91
sg17
I933
sg18
I164
sg19
VSwargate to Pimple Nilakh
p497
sg21
V21N
p498
sa(dp499
g16
I365
sg17
I1200
sg18
I165
sg19
VPimpri gaon to Vikasnagar via Kivale
p500
sg21
V310
p501
sa(dp502
g16
I58
sg17
I1299
sg18
I166
sg19
VPune Station to Hinjewadi Phase3
p503
sg21
V333
p504
sa(dp505
g16
I57
sg17
I459
sg18
I167
sg19
VKothrud Depot to Manapa
p506
sg21
V86
p507
sa(dp508
g16
I677
sg17
I771
sg18
I168
sg19
VKumbre park Wadgaon sheri
p509
sg21
V94A
p510
sa(dp511
g16
I382
sg17
I364
sg18
I169
sg19
VBhosari to Chinchwad gaon
p512
sg21
V304
p513
sa(dp514
g16
I146
sg17
I364
sg18
I170
sg19
VKatraj to Chinchwad gaon
p515
sg21
V298
p516
sa(dp517
g16
I28
sg17
I57
sg18
I171
sg19
VManapa bhavan to Bhosari Telco
p518
sg21
V121A
p519
sa(dp520
g16
I1302
sg17
I92
sg18
I172
sg19
VGanesh nagar to Sarasbag
p521
sg21
V215
p522
sa(dp523
g16
I1307
sg17
I373
sg18
I173
sg19
VPimpri manapa to Pimpri manapa via Kalewadi Circle
p524
sg21
V370
p525
sa(dp526
g16
I146
sg17
I258
sg18
I174
sg19
VKatraj to Hadapsar
p527
sg21
V301K
p528
sa(dp529
g16
I91
sg17
I1336
sg18
I175
sg19
VSwargate to Saswad
p530
sg21
V207
p531
sa(dp532
g16
I91
sg17
I1341
sg18
I176
sg19
VSwargate to Kaleboratenagar
p533
sg21
V196
p534
sa(dp535
g16
I190
sg17
I676
sg18
I177
sg19
VMarket yard to Pimple Gurav
p536
sg21
V11
p537
sa(dp538
g16
I654
sg17
I290
sg18
I178
sg19
VRajiv Gandhinagar to Pune Vidyapeeth
p539
sg21
V25
p540
sa(dp541
g16
I999
sg17
I168
sg18
I179
sg19
VSukhsagar to Shaniwar wada
p542
sg21
V22
p543
sa(dp544
g16
I57
sg17
I1358
sg18
I180
sg19
VManapa to Bahul gaon
p545
sg21
V264
p546
sa(dp547
g16
I533
sg17
I1362
sg18
I181
sg19
VManapa bhavan to Shubham soc
p548
sg21
V132
p549
sa(dp550
g16
I933
sg17
I971
sg18
I182
sg19
VPimple Nilakh to Alandi
p551
sg21
V344
p552
sa(dp553
g16
I677
sg17
I91
sg18
I183
sg19
VKumbre park to Swargate
p554
sg21
V76
p555
sa(dp556
g16
I146
sg17
I1368
sg18
I184
sg19
VSwaragate to Khed Shivapur
p557
sg21
V293
p558
sa(dp559
g16
I102
sg17
I1371
sg18
I185
sg19
VDeccan gymkhana to Medi point
p560
sg21
V105
p561
sa(dp562
g16
I1372
sg17
I600
sg18
I186
sg19
VRupinagar to Nigadi
p563
sg21
V328A
p564
sa(dp565
g16
I1375
sg17
I1386
sg18
I187
sg19
VJambulwadi to Gujarwadi
p566
sg21
V217
p567
sa(dp568
g16
I190
sg17
I1390
sg18
I188
sg19
VMarket yard to Sangamwadi
p569
sg21
V62
p570
sa(dp571
g16
I1069
sg17
I229
sg18
I189
sg19
VPadmavati to Pune Station
p572
sg21
V31
p573
sa(dp574
g16
I1176
sg17
I1015
sg18
I190
sg19
VPune Station to Kalubai mandir
p575
sg21
V187C
p576
sa(dp577
g16
I58
sg17
I1406
sg18
I191
sg19
VPune Station to NDA D2
p578
sg21
V145
p579
sa(dp580
g16
I1032
sg17
I229
sg18
I192
sg19
VAkurdi Rly Station to Hadapsar
p581
sg21
V322B
p582
sa(dp583
g16
I1421
sg17
I229
sg18
I193
sg19
VPhursungi to Pune Station
p584
sg21
V203
p585
sa(dp586
g16
I100
sg17
I1006
sg18
I194
sg19
VNatawadi to Kondhava bu
p587
sg21
V181
p588
sa(dp589
g16
I941
sg17
I1443
sg18
I195
sg19
VCharholi gaon to Rahatani gaon
p590
sg21
V331
p591
sa(dp592
g16
I258
sg17
I1421
sg18
I196
sg19
VHadapsar to Phursungi
p593
sg21
V190
p594
sa(dp595
g16
I600
sg17
I146
sg18
I197
sg19
VNigadi to Katraj via Masulkar colony
p596
sg21
V376
p597
sa(dp598
g16
I57
sg17
I1372
sg18
I198
sg19
VRupinagar to Manapa
p599
sg21
V328
p600
sa(dp601
g16
I102
sg17
I309
sg18
I199
sg19
VDeccan gymkhana to Sutarwadi
p602
sg21
V87A
p603
sa(dp604
g16
I258
sg17
I146
sg18
I200
sg19
VHadapsar to Katraj
p605
sg21
V188
p606
sa(dp607
g16
I734
sg17
I1453
sg18
I201
sg19
VMahatma Gandhi to Wadachi wadi
p608
sg21
V179
p609
sa(dp610
g16
I57
sg17
I876
sg18
I202
sg19
VManapa bhavan to Kondhava Gate
p611
sg21
V82
p612
sa(dp613
g16
I1454
sg17
I676
sg18
I203
sg19
VKothrud depot to Pimple Gurav
p614
sg21
V95
p615
sa(dp616
g16
I258
sg17
I146
sg18
I204
sg19
VHadapsar to Katraj
p617
sg21
V291
p618
sa(dp619
g16
I364
sg17
I58
sg18
I205
sg19
VChinchwad gaon to Pune Station via Chinchwad station
p620
sg21
V312A
p621
sa(dp622
g16
I158
sg17
I355
sg18
I206
sg19
VWarje Malwadi to Shivajinagar Station via Sahwas
p623
sg21
V77
p624
sa(dp625
g16
I600
sg17
I805
sg18
I207
sg19
VNigadi to Dehugaon Via Talwade 
p626
sg21
V350
p627
sa(dp628
g16
I359
sg17
I229
sg18
I208
sg19
VGalinde path to Pune Station
p629
sg21
V143
p630
sa(dp631
g16
I57
sg17
I1032
sg18
I209
sg19
VAkurdi Station to Manapa
p632
sg21
V123A
p633
sa(dp634
g16
I919
sg17
I676
sg18
I210
sg19
VA B Chowk to Pimple Gurav
p635
sg21
V113A
p636
sa(dp637
g16
I258
sg17
I459
sg18
I211
sg19
VKothrud depot to Hadapsar
p638
sg21
V73
p639
sa(dp640
g16
I57
sg17
I971
sg18
I212
sg19
VManapa bhavan to Alandi
p641
sg21
V119
p642
sa(dp643
g16
I365
sg17
I190
sg18
I213
sg19
VPimpri  gaon to Market yard 
p644
sg21
V354
p645
sa(dp646
g16
I102
sg17
I1016
sg18
I214
sg19
VDeccan to Lohgaon Airport
p647
sg21
V158A
p648
sa(dp649
g16
I971
sg17
I351
sg18
I215
sg19
VAlandi to YCM hospital
p650
sg21
V16S
p651
sa(dp652
g16
I365
sg17
I805
sg18
I216
sg19
VPimpri gaon to Dehugaon
p653
sg21
V353
p654
sa(dp655
g16
I57
sg17
I1299
sg18
I217
sg19
VManpa bhavan to Hinjewadi phase 3
p656
sg21
V100
p657
sa(dp658
g16
I382
sg17
I941
sg18
I218
sg19
VBhosari to Rahatani gaon
p659
sg21
V331A
p660
sa(dp661
g16
I1454
sg17
I91
sg18
I219
sg19
VKothrud depot to Swargate via Mandai
p662
sg21
V68P
p663
sa(dp664
g16
I58
sg17
I1439
sg18
I220
sg19
VPune station to Kondhava
p665
sg21
V170
p666
sa(dp667
g16
I92
sg17
I829
sg18
I221
sg19
VSwargate to Uruli Kanchan
p668
sg21
V7
sa(dp669
g16
I91
sg17
I1104
sg18
I222
sg19
VSwargate to Suncity
p670
sg21
V118A
p671
sa(dp672
g16
I971
sg17
I258
sg18
I223
sg19
VHadapsar to Alandi devachi
p673
sg21
V201
p674
sa(dp675
g16
I91
sg17
I1506
sg18
I224
sg19
VSadesatara nali to Swargate
p676
sg21
V200
p677
sa(dp678
g16
I58
sg17
I971
sg18
I225
sg19
VPune Station to Alandi Devachi
p679
sg21
V4S
p680
sa(dp681
g16
I355
sg17
I1285
sg18
I226
sg19
VWarje Malwadi to Kharadi gaon
p682
sg21
V237
p683
sa(dp684
g16
I229
sg17
I1512
sg18
I227
sg19
VPune Station to Munjaba wasti
p685
sg21
V155A
p686
sa(dp687
g16
I91
sg17
I229
sg18
I228
sg19
VSwargate to Pune Station
p688
sg21
V5
sa(dp689
g16
I257
sg17
I1520
sg18
I229
sg19
VSangvi to Shirgaon
p690
sg21
V319
p691
sa(dp692
g16
I102
sg17
I309
sg18
I230
sg19
VDeccan gymkhana to Abhinav college
p693
sg21
V87
p694
sa(dp695
g16
I28
sg17
I971
sg18
I231
sg19
VBhosari to Alandi
p696
sg21
V15S
p697
sa(dp698
g16
I1454
sg17
I334
sg18
I232
sg19
VKothrud depot to Nigdi
p699
sg21
V284
p700
sa(dp701
g16
I57
sg17
I805
sg18
I233
sg19
VManapa to Dehu gaon
p702
sg21
V262
p703
sa(dp704
g16
I600
sg17
I1299
sg18
I234
sg19
VNigadi to Hinjewadi phase3
p705
sg21
V372
p706
sa(dp707
g16
I772
sg17
I1533
sg18
I235
sg19
VPune Station to Venitai college
p708
sg21
V48
p709
sa(dp710
g16
I772
sg17
I837
sg18
I236
sg19
VPune Station to Kesnand phata
p711
sg21
V5S
p712
sa(dp713
g16
I1244
sg17
I158
sg18
I237
sg19
VKondhava Hospital to Shivajinagar
p714
sg21
V19
p715
sa(dp716
g16
I1032
sg17
I146
sg18
I238
sg19
VAkurdi Rly Station to Katraj
p717
sg21
V322
p718
sa(dp719
g16
I1365
sg17
I91
sg18
I239
sg19
VEklavya college to Swargate
p720
sg21
V112
p721
sa(dp722
g16
I102
sg17
I1552
sg18
I240
sg19
VDeccan gymkhana to Sangrun
p723
sg21
V84
p724
sa(dp725
g16
I1454
sg17
I229
sg18
I241
sg19
VKothrud depot to Pune Station
p726
sg21
V94
p727
sa(dp728
g16
I971
sg17
I1554
sg18
I242
sg19
VAlandi to Balewadi
p729
sg21
V360
p730
sa(dp731
g16
I146
sg17
I459
sg18
I243
sg19
VKatraj to Kothrud Depot
p732
sg21
V278
p733
sa(dp734
g16
I57
sg17
I1556
sg18
I244
sg19
VManapa bhavan to Ahire gaon
p735
sg21
V85
p736
sa(dp737
g16
I355
sg17
I28
sg18
I245
sg19
VWarje Malwadi to Bhosari
p738
sg21
V282
p739
sa(dp740
g16
I168
sg17
I1562
sg18
I246
sg19
VShaniwar wada to Singhgad payatha
p741
sg21
V50
p742
sa(dp743
g16
I57
sg17
I1280
sg18
I247
sg19
VManapa to Vidyanagar
p744
sg21
V253
p745
sa(dp746
g16
I1176
sg17
I258
sg18
I248
sg19
VPune Station to Hadapsar
p747
sg21
V203P
p748
sa(dp749
g16
I1006
sg17
I459
sg18
I249
sg19
VKothrud depot to Kondhava Bu
p750
sg21
V101
p751
sa(dp752
g16
I334
sg17
I57
sg18
I250
sg19
VNigadi Bhakti shakti to Manpa bhavan
p753
sg21
V123
p754
sa(dp755
g16
I533
sg17
I1572
sg18
I251
sg19
VManapa to Keshavnagar
p756
sg21
V168
p757
sa(dp758
g16
I1573
sg17
I229
sg18
I252
sg19
VIndrayani nagar to Pune Station
p759
sg21
V339B
p760
sa(dp761
g16
I971
sg17
I842
sg18
I253
sg19
VAlandi to Lonikand phata
p762
sg21
V368
p763
sa(dp764
g16
I58
sg17
I1414
sg18
I254
sg19
VPune Station to Pimple Saudagar
p765
sg21
V337
p766
sa(dp767
g16
I146
sg17
I28
sg18
I255
sg19
VKatraj to Bhosari
p768
sg21
V299
p769
sa(dp770
g16
I166
sg17
I290
sg18
I256
sg19
VBharti Vidyapeeth to Pune Vidyapeeth
p771
sg21
V28
p772
sa(dp773
g16
I1586
sg17
I158
sg18
I257
sg19
VRajas soc to Shivajinagar Station
p774
sg21
V297
p775
sa(dp776
g16
I258
sg17
I1336
sg18
I258
sg19
VHadapsar to Saswad
p777
sg21
V207A
p778
sa(dp779
g16
I168
sg17
I1595
sg18
I259
sg19
VShaniwar wada to Sanaswadi
p780
sg21
V47
p781
sa(dp782
g16
I1032
sg17
I355
sg18
I260
sg19
VAkurdi Station to Warje Malwadi
p783
sg21
V322A
p784
sa(dp785
g16
I1454
sg17
I145
sg18
I261
sg19
VKothrud Depot to Lohgaon
p786
sg21
V102
p787
sa(dp788
g16
I58
sg17
I1572
sg18
I262
sg19
VPune Station to Keshavnagar
p789
sg21
V168P
p790
sa(dp791
g16
I258
sg17
I1603
sg18
I263
sg19
VHadapsar to Uruli Devachi
p792
sg21
V189
p793
sa(dp794
g16
I166
sg17
I158
sg18
I264
sg19
VBharti Vidyapeeth to Shivajinagar Station
p795
sg21
V27
p796
sa(dp797
g16
I58
sg17
I1605
sg18
I265
sg19
VPune Station to Dhayari
p798
sg21
V226
p799
sa(dp800
g16
I654
sg17
I876
sg18
I266
sg19
VUpper depot to Kondhva gate
p801
sg21
V72
p802
sa(dp803
g16
I1069
sg17
I100
sg18
I267
sg19
VPadmavati to NT wadi
p804
sg21
V33
p805
sa(dp806
g16
I600
sg17
I382
sg18
I268
sg19
VNigdi to Bhosari
p807
sg21
V367
p808
sa(dp809
g16
I146
sg17
I1610
sg18
I269
sg19
VKatraj to Maharashtra housing board
p810
sg21
V24
p811
sa(dp812
g16
I355
sg17
I587
sg18
I270
sg19
VWarje Malwadi to Sahkarnagar
p813
sg21
V97
p814
sa(dp815
g16
I355
sg17
I334
sg18
I271
sg19
VWarje Malwadi to Nigdi
p816
sg21
V281
p817
sa(dp818
g16
I190
sg17
I1613
sg18
I272
sg19
VMarket yard to Agalambe Gaon
p819
sg21
V66
p820
sa(dp821
g16
I258
sg17
I1622
sg18
I273
sg19
VHadapsar to Theur Factory
p822
sg21
V183
p823
sa(dp824
g16
I772
sg17
I630
sg18
I274
sg19
VPune Station to Wadgaon bu
p825
sg21
V57
p826
sa(dp827
g16
I229
sg17
I139
sg18
I275
sg19
VPune Station to Vishrantwadi
p828
sg21
V154
p829
sa(dp830
g16
I91
sg17
I1280
sg18
I276
sg19
VSwargate to Vidyanagar
p831
sg21
V45
p832
sa(dp833
g16
I91
sg17
I145
sg18
I277
sg19
VSwargate to Lohgaon
p834
sg21
V157
p835
sa(dp836
g16
I359
sg17
I91
sg18
I278
sg19
VGalinde path to Swargate via Mandai
p837
sg21
V9S
p838
sa(dp839
g16
I28
sg17
I58
sg18
I279
sg19
VBhosari to Pune Station via Yerwada
p840
sg21
V315
p841
sa(dp842
g16
I734
sg17
I804
sg18
I280
sg19
VMahatma Gandhi to Viman nagar
p843
sg21
V164
p844
sa(dp845
g16
I258
sg17
I1629
sg18
I281
sg19
VHadapsar to Mhatobachi Alandi
p846
sg21
V8
sa(dp847
g16
I166
sg17
I229
sg18
I282
sg19
VBharti vidyapeeth to Punestation
p848
sg21
V230
p849
sa(dp850
g16
I258
sg17
I355
sg18
I283
sg19
VHadapsar to Warje Malwadi
p851
sg21
V202
p852
sa(dp853
g16
I654
sg17
I1610
sg18
I284
sg19
VUpper Depot to Maharashtra housing board
p854
sg21
V65
p855
sa(dp856
g16
I91
sg17
I630
sg18
I285
sg19
VSwargate to Wadgaon Tukai nagar
p857
sg21
V18
p858
sa(dp859
g16
I57
sg17
I1065
sg18
I286
sg19
VManapa to Mhalunge gaon
p860
sg21
V114
p861
sa(dp862
g16
I364
sg17
I58
sg18
I287
sg19
VChinchwad to Pune station via Bhatnagr
p863
sg21
V312B
p864
sa(dp865
g16
I258
sg17
I57
sg18
I288
sg19
VHadapsar to Manapa
p866
sg21
V111
p867
sa(dp868
g16
I102
sg17
I804
sg18
I289
sg19
VDeccan gymkhana to Viman nagar
p869
sg21
V161
p870
sa(dp871
g16
I57
sg17
I1637
sg18
I290
sg19
VManapa to Balewadi Mojhe vidyalay
p872
sg21
V256
p873
sa(dp874
g16
I229
sg17
I1221
sg18
I291
sg19
VRajgurunagar to Pune Station
p875
sg21
V357
p876
sa(dp877
g16
I677
sg17
I229
sg18
I292
sg19
VKumbre park to Pune Station
p878
sg21
V283
p879
sa(dp880
g16
I1257
sg17
I58
sg18
I293
sg19
VMasulkar colony to Pune Station
p881
sg21
V325
p882
sa(dp883
g16
I58
sg17
I745
sg18
I294
sg19
VPune Station to Salunke vihar
p884
sg21
V177
p885
sa(dp886
g16
I58
sg17
I144
sg18
I295
sg19
VPune Station to Dhanori
p887
sg21
V155
p888
sa(dp889
g16
I677
sg17
I229
sg18
I296
sg19
VKumbre park to Pune Station
p890
sg21
V81
p891
sa(dp892
g16
I1639
sg17
I229
sg18
I297
sg19
VKhandoba mandir to Pune Station
p893
sg21
V141
p894
sa(dp895
g16
I91
sg17
I1371
sg18
I298
sg19
VSwargate to Medipoint
p896
sg21
V88
p897
sa(dp898
g16
I57
sg17
I301
sg18
I299
sg19
VManapa bhavan to Garden city
p899
sg21
V80A
p900
sa(dp901
g16
I1120
sg17
I229
sg18
I300
sg19
VDhankwadi to Pune Station
p902
sg21
V39
p903
sa(dp904
g16
I100
sg17
I587
sg18
I301
sg19
VNatawadi to Sahkaranagar
p905
sg21
V37
p906
sa(dp907
g16
I1299
sg17
I58
sg18
I302
sg19
VPune Station to Infosys phase 3
p908
sg21
V115P
p909
sa(dp910
g16
I146
sg17
I1285
sg18
I303
sg19
VKatraj to Kharadi
p911
sg21
V235
p912
sa(dp913
g16
I146
sg17
I1554
sg18
I304
sg19
VKatraj to Balewadi
p914
sg21
V2S
p915
sa(dp916
g16
I1644
sg17
I229
sg18
I305
sg19
VKrushnanagar to Pune Station via Aundh
p917
sg21
V318
p918
sa(dp919
g16
I654
sg17
I158
sg18
I306
sg19
VUpper Depot Laketown to Shivajinagar
p920
sg21
V13L
p921
sa(dp922
g16
I1285
sg17
I91
sg18
I307
sg19
VSwargate to Kharadi
p923
sg21
V67
p924
sa(dp925
g16
I654
sg17
I460
sg18
I308
sg19
VUpper depot to Kothrud depot
p926
sg21
V71A
p927
sa(dp928
g16
I533
sg17
I145
sg18
I309
sg19
VManapa to Lohgaon
p929
sg21
V158
p930
sa(dp931
g16
I533
sg17
I1575
sg18
I310
sg19
VManapa to Markal gaon
p932
sg21
V257
p933
sa(dp934
g16
I57
sg17
I920
sg18
I311
sg19
VManapa to Vishrantwadi
p935
sg21
V152
p936
sa(dp937
g16
I146
sg17
I459
sg18
I312
sg19
VKatraj to Kothrud Depot
p938
sg21
V103
p939
sa(dp940
g16
I258
sg17
I1657
sg18
I313
sg19
VHadapsar to Holkarwadi
p941
sg21
V195
p942
sa(dp943
g16
I971
sg17
I518
sg18
I314
sg19
VAlandi to Jambhe
p944
sg21
V351
p945
sa(dp946
g16
I365
sg17
I58
sg18
I315
sg19
VPimpri gaon to Pune Station via Yerwada
p947
sg21
V311
p948
sa(dp949
g16
I102
sg17
I1280
sg18
I316
sg19
VDeccan gymkhana to Vidyanagar
p950
sg21
V75
p951
sa(dp952
g16
I373
sg17
I58
sg18
I317
sg19
VPimpri to Pune station via Kalewadi Aundh
p953
sg21
V332A
p954
sa(dp955
g16
I533
sg17
I1661
sg18
I318
sg19
VManapa to Pabal phata
p956
sg21
V8S
p957
sa(dp958
g16
I533
sg17
I1671
sg18
I319
sg19
VManapa to Wade Bolhai
p959
sg21
V135
p960
sa(dp961
g16
I258
sg17
I100
sg18
I320
sg19
VHadapsar to Narveer Tanaji Wadi
p962
sg21
V180
p963
sa(dp964
g16
I28
sg17
I228
sg18
I321
sg19
VBhosari to Pune Station via Vishrantwadi
p965
sg21
V315A
p966
sa(dp967
g16
I677
sg17
I158
sg18
I322
sg19
VKumbre Park to Shivaji nagar
p968
sg21
V10S
p969
sa(dp970
g16
I258
sg17
I1086
sg18
I323
sg19
VHadapsar to Manjari via keshavnagar
p971
sg21
V198
p972
sa(dp973
g16
I57
sg17
I971
sg18
I324
sg19
VManapa bhavan to Charholi Alandi
p974
sg21
V252
p975
sa(dp976
g16
I146
sg17
I158
sg18
I325
sg19
VKatraj to Shivajinagar
p977
sg21
V2R
p978
sa(dp979
g16
I57
sg17
I364
sg18
I326
sg19
VManapa bhavan to Chinchwad gaon
p980
sg21
V122
p981
sa(dp982
g16
I258
sg17
I485
sg18
I327
sg19
VHadapsar to Pimpri road
p983
sg21
V149
p984
sa(dp985
g16
I600
sg17
I229
sg18
I328
sg19
VNigadi to Pune Station via Aundh
p986
sg21
V348
p987
sa(dp988
g16
I1678
sg17
I158
sg18
I329
sg19
VJyoti park to Shivajinagar station
p989
sg21
V32
p990
sa(dp991
g16
I146
sg17
I334
sg18
I330
sg19
VKatraj to Nigadi
p992
sg21
V42
p993
sa(dp994
g16
I625
sg17
I1104
sg18
I331
sg19
VShanipar to Suncity
p995
sg21
V55
p996
sa(dp997
g16
I146
sg17
I229
sg18
I332
sg19
VKatraj to Pune station via gangadham
p998
sg21
V295
p999
sa(dp1000
g16
I58
sg17
I309
sg18
I333
sg19
VPune Station to Sutarwadi
p1001
sg21
V145A
p1002
sa(dp1003
g16
I533
sg17
I1285
sg18
I334
sg19
VManapa to Kharadi gaon
p1004
sg21
V234
p1005
sa(dp1006
g16
I600
sg17
I1032
sg18
I335
sg19
VNigadi to Akurdi Railway station
p1007
sg21
V13S
p1008
sa(dp1009
g16
I258
sg17
I333
sg18
I336
sg19
VHadapsar to Nigadi
p1010
sg21
V139
p1011
sa(dp1012
g16
I805
sg17
I58
sg18
I337
sg19
VDehugaon to Pune Station
p1013
sg21
V329
p1014
sa(dp1015
g16
I168
sg17
I1691
sg18
I338
sg19
VShaniwarwada to Narhe Ambegaon
p1016
sg21
V17
p1017
sa(dp1018
g16
I168
sg17
I1256
sg18
I339
sg19
VShaniwar wada to DSK
p1019
sg21
V53
p1020
sa(dp1021
g16
I146
sg17
I229
sg18
I340
sg19
VKatraj to Pune Station
p1022
sg21
V3R
p1023
sa(dp1024
g16
I58
sg17
I1371
sg18
I341
sg19
VPune Station to Medi Point
p1025
sg21
V129
p1026
sa(dp1027
g16
I146
sg17
I517
sg18
I342
sg19
VKatraj to Telegaon Dabhade
p1028
sg21
V228
p1029
sa(dp1030
g16
I365
sg17
I335
sg18
I343
sg19
VPimpri gaon to Chikhali via Kudalwadi
p1031
sg21
V326A
p1032
sa(dp1033
g16
I258
sg17
I146
sg18
I344
sg19
VHadapsar to Katraj
p1034
sg21
V301H
p1035
sa(dp1036
g16
I600
sg17
I1701
sg18
I345
sg19
VNigadi to Bebad ohal
p1037
sg21
V308
p1038
sa(dp1039
g16
I146
sg17
I290
sg18
I346
sg19
VKatraj to Pune Vidyapeeth
p1040
sg21
V34
p1041
sa(dp1042
g16
I805
sg17
I971
sg18
I347
sg19
VAlandi to Dehugaon
p1043
sg21
V309A
p1044
sa(dp1045
g16
I600
sg17
I355
sg18
I348
sg19
VNigadi to Warje Malwadi Via Masulkar colony
p1046
sg21
V376A
p1047
sa(dp1048
g16
I1573
sg17
I57
sg18
I349
sg19
VIndrayani nagar to Manapa
p1049
sg21
V339A
p1050
sa(dp1051
g16
I1639
sg17
I158
sg18
I350
sg19
VUpper depot Sukhsagar to Shivajinagar Station
p1052
sg21
V13
p1053
sa(dp1054
g16
I533
sg17
I771
sg18
I351
sg19
VManapa to Wadgaon sheri
p1055
sg21
V165
p1056
sa(dp1057
g16
I1375
sg17
I158
sg18
I352
sg19
VJambhulwadi to Shivajinagar Station
p1058
sg21
V296
p1059
sa(dp1060
g16
I258
sg17
I28
sg18
I353
sg19
VHadapsar to Bhosari
p1061
sg21
V346
p1062
sa(dp1063
g16
I1573
sg17
I57
sg18
I354
sg19
VIndrayani nagar to Manapa bhavan
p1064
sg21
V339C
p1065
sa(dp1066
g16
I884
sg17
I58
sg18
I355
sg19
VPimpri manpa to Pune Station via Jagtap dairy Aundh
p1067
sg21
V332B
p1068
sa(dp1069
g16
I168
sg17
I1533
sg18
I356
sg19
VShaniwar wada to Vetutai college
p1070
sg21
V54
p1071
sa(dp1072
g16
I600
sg17
I517
sg18
I357
sg19
VNigadi to Wadgaon
p1073
sg21
V305
p1074
sa(dp1075
g16
I365
sg17
I335
sg18
I358
sg19
VPimpri gaon to Chikhali
p1076
sg21
V326B
p1077
sa(dp1078
g16
I257
sg17
I139
sg18
I359
sg19
VSangvi to Vishrantwadi
p1079
sg21
V125
p1080
sa(dp1081
g16
I533
sg17
I1713
sg18
I360
sg19
VManapa to Aanand park
p1082
sg21
V133A
p1083
sa(dp1084
g16
I258
sg17
I364
sg18
I361
sg19
VHadapsar to Chinchwad
p1085
sg21
V204
p1086
sa(dp1087
g16
I102
sg17
I933
sg18
I362
sg19
VDeccan gymkhana to PimpleNilakh
p1088
sg21
V93
p1089
sa(dp1090
g16
I190
sg17
I717
sg18
I363
sg19
VMarket yard to Ghotawade phata
p1091
sg21
V30
p1092
sa(dp1093
g16
I58
sg17
I1299
sg18
I364
sg19
VPune Station to Hinjewadi phase3
p1094
sg21
V7S
p1095
sa(dp1096
g16
I625
sg17
I1068
sg18
I365
sg19
VShanipar to Gokhalenagar
p1097
sg21
V58
p1098
sa(dp1099
g16
I91
sg17
I1421
sg18
I366
sg19
VSwargate to Hadapsar Bhekrainagar Phursungi
p1100
sg21
V184
p1101
sa(dp1102
g16
I158
sg17
I1605
sg18
I367
sg19
VShivajinagar to Dhyari maruti mandir
p1103
sg21
V51
p1104
sa(dp1105
g16
I111
sg17
I229
sg18
I368
sg19
VKothrud Stand to Pune Station
p1106
sg21
V144
p1107
sa(dp1108
g16
I91
sg17
I256
sg18
I369
sg19
VSwargate to Sangvi
p1109
sg21
V21
p1110
sa(dp1111
g16
I533
sg17
I1572
sg18
I370
sg19
VManapa to Keshavnagar via koregaon park
p1112
sg21
V169
p1113
sa(dp1114
g16
I58
sg17
I1245
sg18
I371
sg19
VPune Station to Kondhava hospital
p1115
sg21
V191
p1116
sa(dp1117
g16
I102
sg17
I676
sg18
I372
sg19
VDeccan gymkhana to Pimple gurav
p1118
sg21
V107
p1119
sa(dp1120
g16
I168
sg17
I1744
sg18
I373
sg19
VShaniwar wada to Wardade gaon
p1121
sg21
V52
p1122
sa(dp1123
g16
I57
sg17
I57
sg18
I374
sg19
VManapa to Manapa via Pashan
p1124
sg21
V109
p1125
sa(dp1126
g16
I654
sg17
I459
sg18
I375
sg19
VKothrud Depot to Upper Depot
p1127
sg21
V71
p1128
sasS'_prefetch_done'
p1129
I00
sS'_for_write'
p1130
I00
sS'query'
p1131
g1
(cdjango.db.models.sql.query
Query
p1132
g3
NtRp1133
(dp1134
S'aggregate_select_mask'
p1135
NsS'_aggregate_select_cache'
p1136
NsS'extra'
p1137
g1
(cdjango.utils.datastructures
SortedDict
p1138
c__builtin__
dict
p1139
(dtRp1140
(dp1141
S'keyOrder'
p1142
(lp1143
sbsS'join_map'
p1144
(dp1145
(NS'routes_route'
p1146
NNtp1147
(g1146
tp1148
s(g1146
S'routes_stop'
p1149
g17
g18
tp1150
(S'T3'
p1151
tp1152
s(g1146
g1149
g16
g18
tp1153
(g1149
tp1154
ssS'related_select_fields'
p1155
(lp1156
sS'extra_tables'
p1157
(tsS'select'
p1158
(lp1159
(g1146
g18
tp1160
a(g1146
g21
tp1161
a(g1146
g19
tp1162
a(g1146
g16
tp1163
a(g1146
g17
tp1164
asS'quote_cache'
p1165
(dp1166
sS'rev_join_map'
p1167
(dp1168
g1146
g1147
sg1151
g1150
sg1149
g1153
ssS'used_aliases'
p1169
c__builtin__
set
p1170
((ltRp1171
sS'order_by'
p1172
(lp1173
sS'distinct'
p1174
I00
sS'dupe_avoidance'
p1175
(dp1176
(I33745232
g16
tp1177
g1170
((lp1178
g1151
atRp1179
s(I33745232
g17
tp1180
g1170
((lp1181
g1149
atRp1182
ssS'default_ordering'
p1183
I01
sS'group_by'
p1184
NsS'select_for_update'
p1185
I00
sS'select_related'
p1186
I00
sS'deferred_loading'
p1187
(g1170
((ltRp1188
I01
tp1189
sS'select_fields'
p1190
(lp1191
g18
ag21
ag19
aS'from_stop'
p1192
aS'to_stop'
p1193
asS'alias_map'
p1194
(dp1195
g1146
(g1146
g1146
NNNNI00
tp1196
sg1151
(g1149
g1151
S'INNER JOIN'
p1197
g1146
g17
g18
I00
tp1198
sg1149
(g1149
g1149
g1197
g1146
g16
g18
I00
tp1199
ssS'max_depth'
p1200
I5
sS'standard_ordering'
p1201
I01
sS'extra_order_by'
p1202
(tsS'distinct_fields'
p1203
(lp1204
sS'tables'
p1205
(lp1206
g1146
ag1149
ag1151
asS'aggregates'
p1207
g1
(g1138
g1139
(dtRp1208
(dp1209
g1142
(lp1210
sbsS'extra_select_mask'
p1211
NsS'select_for_update_nowait'
p1212
I00
sS'_extra_select_cache'
p1213
NsS'low_mark'
p1214
I0
sS'alias_refcount'
p1215
g1
(g1138
g1139
(dp1216
g1146
I1
sg1151
I0
sg1149
I0
stRp1217
(dp1218
g1142
(lp1219
g1146
ag1149
ag1151
asbsS'related_select_cols'
p1220
(lp1221
sS'default_cols'
p1222
I01
sS'ordering_aliases'
p1223
(lp1224
sS'having'
p1225
g1
(cdjango.db.models.sql.where
WhereNode
p1226
g3
NtRp1227
(dp1228
S'connector'
p1229
S'AND'
p1230
sS'negated'
p1231
I00
sS'children'
p1232
(lp1233
sS'subtree_parents'
p1234
(lp1235
sbsS'included_inherited_models'
p1236
(dp1237
sS'table_map'
p1238
(dp1239
g1146
(lp1240
g1146
asg1149
(lp1241
g1149
ag1151
assS'where_class'
p1242
g1226
sS'model'
p1243
croutes.models
Route
p1244
sS'where'
p1245
g1
(g1226
g3
NtRp1246
(dp1247
g1229
g1230
sg1231
I00
sg1232
(lp1248
sg1234
(lp1249
sbsS'high_mark'
p1250
NsS'filter_is_sticky'
p1251
I00
sbsg1243
g1244
sS'_fields'
p1252
(tsS'field_names'
p1253
(lp1254
g18
ag21
ag19
ag16
ag17
asb.