(dp1
VKarnataka High school
p2
(dp3
S'latitude'
p4
V18.501747
p5
sS'longitude'
p6
V73.827077
p7
ssVS T Stand Kesnand
p8
(dp9
g4
V18.5731929
p10
sg6
V74.0241367
p11
ssVSai Chauk
p12
(dp13
g4
V18.543537
p14
sg6
V73.784902
p15
ssVLonikand
p16
(dp17
g4
V18.6287285
p18
sg6
V74.0329499
p19
ssVBapusaheb Magar wasti
p20
(dp21
g4
V18.5204303
p22
sg6
V73.8567437
p23
ssVChinchwade Nagar Corner Akurdi Road
p24
(dp25
g4
V18.5204303
p26
sg6
V73.8567437
p27
ssVWadgaon Ghenand Shala
p28
(dp29
g4
V18.715819
p30
sg6
V73.93528
p31
ssVNavin ST stand
p32
(dp33
g4
V18.5204303
p34
sg6
V73.8567437
p35
ssVKawade Nagar 
p36
(dp37
g4
V18.585787
p38
sg6
V73.812963
p39
ssVDehu phata highway
p40
(dp41
g4
V18.678599
p42
sg6
V73.742183
p43
ssVAtharva Park
p44
(dp45
g4
V18.5204303
p46
sg6
V73.8567437
p47
ssVSant namdeo vidyalay
p48
(dp49
g4
V18.7461749
p50
sg6
V73.415765
p51
ssVPimpri Manapa
p52
(dp53
g4
V18.524614
p54
sg6
V73.856112
p55
ssVRangan Khor 
p56
(dp57
g4
V18.5204303
p58
sg6
V73.8567437
p59
ssVMadiwale colony
p60
(dp61
g4
V18.506133
p62
sg6
V73.85275
p63
ssVLadies Hostel 
p64
(dp65
g4
V18.461203
p66
sg6
V73.877481
p67
ssVSahajanand Soc
p68
(dp69
g4
V18.496374
p70
sg6
V73.802072
p71
ssVParikh complex
p72
(dp73
g4
V18.5204303
p74
sg6
V73.8567437
p75
ssVRajas Soc.
p76
(dp77
g4
V18.4777094
p78
sg6
V73.8971106
p79
ssVSachapeer Street
p80
(dp81
g4
V18.5150605
p82
sg6
V73.8764303
p83
ssVWajewadi Chaufula
p84
(dp85
g4
V18.5204303
p86
sg6
V73.8567437
p87
ssVBavdhan khind
p88
(dp89
g4
V18.4973349
p90
sg6
V73.7886276
p91
ssVHolkarwadi
p92
(dp93
g4
V18.438516
p94
sg6
V73.9411256
p95
ssVCOD Corner
p96
(dp97
g4
V18.5204303
p98
sg6
V73.8567437
p99
ssVLalmandir
p100
(dp101
g4
V18.534269
p102
sg6
V73.928313
p103
ssVPMC mangala
p104
(dp105
g4
V18.523954
p106
sg6
V73.85418
p107
ssVTheurgaon Phata
p108
(dp109
g4
V18.617356
p110
sg6
V73.767218
p111
ssVDate Bus stop
p112
(dp113
g4
V18.478792
p114
sg6
V73.850657
p115
ssVAkurdi police chauky
p116
(dp117
g4
V18.6466046
p118
sg6
V73.8004248
p119
ssVAlfa laval atlas company
p120
(dp121
g4
V18.5204303
p122
sg6
V73.8567437
p123
ssVKalyangaon
p124
(dp125
g4
V18.5448365
p126
sg6
V73.7845339
p127
ssVPanjarpol
p128
(dp129
g4
V18.6422569
p130
sg6
V73.8512792
p131
ssVKeshavnagar pul
p132
(dp133
g4
V18.5204303
p134
sg6
V73.8567437
p135
ssVPhursungi gaon phata
p136
(dp137
g4
V18.4714191
p138
sg6
V73.9596509
p139
ssVMahadeo nagar
p140
(dp141
g4
V18.4765985
p142
sg6
V73.8323492
p143
ssVBelhekar wasti
p144
(dp145
g4
V18.5202253
p146
sg6
V73.9791012
p147
ssVPisoli Gaon 
p148
(dp149
g4
V18.450046
p150
sg6
V73.908893
p151
ssVGokhale hall
p152
(dp153
g4
V18.51415
p154
sg6
V73.849754
p155
ssVMhalsakant Chowk
p156
(dp157
g4
V18.6497062
p158
sg6
V73.7778363
p159
ssVKirloskar oil engine manaji bag
p160
(dp161
g4
V18.569811
p162
sg6
V73.841791
p163
ssVBa ra gholap
p164
(dp165
g4
V18.575605
p166
sg6
V73.810364
p167
ssVKadwasti
p168
(dp169
g4
V18.5894857
p170
sg6
V73.895824
p171
ssVJambhe
p172
(dp173
g4
V18.6404818
p174
sg6
V73.7227774
p175
ssVShinde Farm
p176
(dp177
g4
V18.5204303
p178
sg6
V73.8567437
p179
ssVWarje Jakatnaka
p180
(dp181
g4
V18.484655
p182
sg6
V73.810415
p183
ssVSalunke hospital
p184
(dp185
g4
V18.4940191
p186
sg6
V73.8257325
p187
ssVNaygoan 
p188
(dp189
g4
V18.5100809
p190
sg6
V74.0946311
p191
ssVGeneral post office
p192
(dp193
g4
V18.5229149
p194
sg6
V73.8752894
p195
ssVLonkar wasti
p196
(dp197
g4
V18.527644
p198
sg6
V73.949798
p199
ssVBalsadan
p200
(dp201
g4
V18.5135398
p202
sg6
V73.8533876
p203
ssVGhorpadi Phata
p204
(dp205
g4
V18.5204303
p206
sg6
V73.8567437
p207
ssVAher garden
p208
(dp209
g4
V18.633659
p210
sg6
V73.764866
p211
ssVNaik bungalow
p212
(dp213
g4
V18.504394
p214
sg6
V73.8201035
p215
ssVMalkhed
p216
(dp217
g4
V18.3917
p218
sg6
V73.702067
p219
ssVMagarpatta school
p220
(dp221
g4
V18.5268905
p222
sg6
V73.9278113
p223
ssVBhatnagar 
p224
(dp225
g4
V18.477816
p226
sg6
V73.8975826
p227
ssVMoshi phata chikhali
p228
(dp229
g4
V18.681848
p230
sg6
V73.819537
p231
ssVSNDT college
p232
(dp233
g4
V18.5089382
p234
sg6
V73.8275705
p235
ssVKatraj dairy Sarpodyan
p236
(dp237
g4
V18.454864
p238
sg6
V73.858576
p239
ssVGhat utaar Walan
p240
(dp241
g4
V18.400988
p242
sg6
V73.857102
p243
ssVHM Hostel
p244
(dp245
g4
V18.5204303
p246
sg6
V73.8567437
p247
ssVMohammadwadi jakat naka
p248
(dp249
g4
V18.5204303
p250
sg6
V73.8567437
p251
ssVMaster bakery
p252
(dp253
g4
V18.632471
p254
sg6
V73.81993
p255
ssVAvinash mangal karyalay
p256
(dp257
g4
V18.5204303
p258
sg6
V73.8567437
p259
ssVHinjewadi Gaon
p260
(dp261
g4
V18.5601154
p262
sg6
V73.7871306
p263
ssVShivaji nagar ST Stand
p264
(dp265
g4
V18.532448
p266
sg6
V73.849456
p267
ssVMandvi Khurd
p268
(dp269
g4
V18.5204303
p270
sg6
V73.8567437
p271
ssVMohammadwadi shala
p272
(dp273
g4
V18.5204303
p274
sg6
V73.8567437
p275
ssVPrayagdham Ashram 
p276
(dp277
g4
V18.5204303
p278
sg6
V73.8567437
p279
ssVSomeshwar Mandir
p280
(dp281
g4
V18.670741
p282
sg6
V73.781198
p283
ssVAbhi chemicals
p284
(dp285
g4
V18.5204303
p286
sg6
V73.8567437
p287
ssVKasarwadi
p288
(dp289
g4
V18.6060873
p290
sg6
V73.8227917
p291
ssVKharadi Gaon
p292
(dp293
g4
V18.5479754
p294
sg6
V73.9451957
p295
ssVB sub depot
p296
(dp297
g4
V18.5204303
p298
sg6
V73.8567437
p299
ssV15 number Manjari Gaon Phata
p300
(dp301
g4
V18.5204303
p302
sg6
V73.8567437
p303
ssVMail dagad kramank 21
p304
(dp305
g4
V18.5204303
p306
sg6
V73.8567437
p307
ssVRamanand Mangal Karyalaya
p308
(dp309
g4
V18.5204303
p310
sg6
V73.8567437
p311
ssVFatimanagar
p312
(dp313
g4
V18.5043381
p314
sg6
V73.9029138
p315
ssVKondhava Hospital
p316
(dp317
g4
V18.439256
p318
sg6
V73.895318
p319
ssVShinde Nagar
p320
(dp321
g4
V18.512056
p322
sg6
V73.782175
p323
ssVchavan nagar university road
p324
(dp325
g4
V18.544424
p326
sg6
V73.824065
p327
ssVGaikwad wasti 
p328
(dp329
g4
V18.53273
p330
sg6
V73.91821
p331
ssVVanaz company
p332
(dp333
g4
V18.5204303
p334
sg6
V73.8567437
p335
ssVGents hostel university
p336
(dp337
g4
V18.5204303
p338
sg6
V73.8567437
p339
ssVGreen ekars
p340
(dp341
g4
V18.457392
p342
sg6
V73.804411
p343
ssVMandavi Budruk
p344
(dp345
g4
V18.5204303
p346
sg6
V73.8567437
p347
ssVPune University Main Building
p348
(dp349
g4
V18.554298
p350
sg6
V73.824577
p351
ssVRajendra pipe company
p352
(dp353
g4
V18.5204303
p354
sg6
V73.8567437
p355
ssVKrishnai water park
p356
(dp357
g4
V18.4053927
p358
sg6
V73.7689717
p359
ssVMandai
p360
(dp361
g4
V18.512879
p362
sg6
V73.8562411
p363
ssVSalunke Vihar
p364
(dp365
g4
V18.4799816
p366
sg6
V73.9043836
p367
ssVBank of maharashtra
p368
(dp369
g4
V18.529951
p370
sg6
V73.851043
p371
ssVLIC colony
p372
(dp373
g4
V18.562315
p374
sg6
V73.833407
p375
ssVMatoshri nagar
p376
(dp377
g4
V18.4897798
p378
sg6
V73.8255379
p379
ssVSanaswadi Nandoshi
p380
(dp381
g4
V18.414341
p382
sg6
V73.803102
p383
ssVSarpodyan Telco Road
p384
(dp385
g4
V18.5204303
p386
sg6
V73.8567437
p387
ssVBU Bhandari Showroom
p388
(dp389
g4
V18.5204303
p390
sg6
V73.8567437
p391
ssVTupe Mala
p392
(dp393
g4
V18.510161
p394
sg6
V73.94321
p395
ssVKhadi Machine Chakan
p396
(dp397
g4
V18.7602664
p398
sg6
V73.8630346
p399
ssVBara gholap
p400
(dp401
g4
V18.575605
p402
sg6
V73.810364
p403
ssVWater tank
p404
(dp405
g4
V18.5937036
p406
sg6
V73.9226671
p407
ssVFilm Institute
p408
(dp409
g4
V18.5155604
p410
sg6
V73.8293919
p411
ssVRailway Station Uruli Kanchan 
p412
(dp413
g4
V18.4938624
p414
sg6
V74.1369524
p415
ssVDharmanagar 5 va mail
p416
(dp417
g4
V18.5204303
p418
sg6
V73.8567437
p419
ssVArmy college
p420
(dp421
g4
V18.52964
p422
sg6
V73.907933
p423
ssVBank of Maharashtra Parvati gaon
p424
(dp425
g4
V18.4738711
p426
sg6
V73.825319
p427
ssVVaiduwasti
p428
(dp429
g4
V18.5332247
p430
sg6
V73.8253649
p431
ssVDeshmukhwadi
p432
(dp433
g4
V18.469156
p434
sg6
V73.786778
p435
ssVGadikhana
p436
(dp437
g4
V18.511898
p438
sg6
V73.85786
p439
ssVKhan Road 
p440
(dp441
g4
V18.519151
p442
sg6
V73.879542
p443
ssVVallabhnagar
p444
(dp445
g4
V18.615558
p446
sg6
V73.815146
p447
ssVShivaji nagar S T stand
p448
(dp449
g4
V18.541845
p450
sg6
V73.82766
p451
ssVPaisa Phand  Kach Karkhana
p452
(dp453
g4
V18.5204303
p454
sg6
V73.8567437
p455
ssVJambhalkar Wasti
p456
(dp457
g4
V18.5204303
p458
sg6
V73.8567437
p459
ssVShelarwadi
p460
(dp461
g4
V18.6739843
p462
sg6
V73.7433727
p463
ssVBhim Jyoti Soc.
p464
(dp465
g4
V18.5204303
p466
sg6
V73.8567437
p467
ssVPremier company
p468
(dp469
g4
V18.635293
p470
sg6
V73.798276
p471
ssVKakde Vasti Lohgaon
p472
(dp473
g4
V18.5204303
p474
sg6
V73.8567437
p475
ssVNetaji school
p476
(dp477
g4
V18.552009
p478
sg6
V73.889595
p479
ssVBalaji Palace 
p480
(dp481
g4
V18.5525321
p482
sg6
V73.9379569
p483
ssVAgalambe Phata
p484
(dp485
g4
V18.417787
p486
sg6
V73.735547
p487
ssVRajaram pul
p488
(dp489
g4
V18.490968
p490
sg6
V73.827049
p491
ssVMal Hagwane wasti
p492
(dp493
g4
V18.5204303
p494
sg6
V73.8567437
p495
ssVPhadtare Wasti
p496
(dp497
g4
V18.5204303
p498
sg6
V73.8567437
p499
ssVPunavale Corner
p500
(dp501
g4
V18.5204303
p502
sg6
V73.8567437
p503
ssVSanas Vidyalaya
p504
(dp505
g4
V18.4599788
p506
sg6
V73.8119559
p507
ssVMimli Garden
p508
(dp509
g4
V18.5204303
p510
sg6
V73.8567437
p511
ssVShirgaon
p512
(dp513
g4
V18.6805499
p514
sg6
V73.6874664
p515
ssVKeshavnagar
p516
(dp517
g4
V18.5204303
p518
sg6
V73.8567437
p519
ssVLIC Corner
p520
(dp521
g4
V18.5204303
p522
sg6
V73.8567437
p523
ssVTikone Godown
p524
(dp525
g4
V18.5204303
p526
sg6
V73.8567437
p527
ssVBudhrani Hospital
p528
(dp529
g4
V18.53298
p530
sg6
V73.886073
p531
ssVDhankawadi
p532
(dp533
g4
V18.4573215
p534
sg6
V73.8507279
p535
ssVICC bus stop
p536
(dp537
g4
V18.541013
p538
sg6
V73.830676
p539
ssVSarasbag
p540
(dp541
g4
V18.503197
p542
sg6
V73.853717
p543
ssVAlear weare housing
p544
(dp545
g4
V18.5204303
p546
sg6
V73.8567437
p547
ssVJadhav wadi
p548
(dp549
g4
V18.680733
p550
sg6
V73.8198508
p551
ssVLalghar
p552
(dp553
g4
V18.480925
p554
sg6
V73.661003
p555
ssVMorwadi Phata
p556
(dp557
g4
V18.5204303
p558
sg6
V73.8567437
p559
ssVPravin Masala Company
p560
(dp561
g4
V18.5204303
p562
sg6
V73.8567437
p563
ssVAlegaonkar High school
p564
(dp565
g4
V18.5685281
p566
sg6
V73.8458948
p567
ssVKesnand
p568
(dp569
g4
V18.5731929
p570
sg6
V74.0241367
p571
ssVBuddha Vihar
p572
(dp573
g4
V18.574512
p574
sg6
V73.832549
p575
ssVPhulgaon
p576
(dp577
g4
V18.656031
p578
sg6
V74.0153231
p579
ssVPadmavati corner
p580
(dp581
g4
V18.5048936
p582
sg6
V73.862586
p583
ssVKukut Palan Kendra
p584
(dp585
g4
V18.5204303
p586
sg6
V73.8567437
p587
ssVKirti Grapes
p588
(dp589
g4
V18.5204303
p590
sg6
V73.8567437
p591
ssVKalbhor nagar bus stop
p592
(dp593
g4
V18.646916
p594
sg6
V73.788385
p595
ssVSapras post
p596
(dp597
g4
V18.5204303
p598
sg6
V73.8567437
p599
ssVEngineering college hostel
p600
(dp601
g4
V18.528357
p602
sg6
V73.852084
p603
ssVGokul nagar
p604
(dp605
g4
V18.5877162
p606
sg6
V73.8885824
p607
ssVShivaji putala pmc
p608
(dp609
g4
V18.526617
p610
sg6
V73.852559
p611
ssVSomaji Khat Karkhana
p612
(dp613
g4
V18.457239
p614
sg6
V73.890762
p615
ssVBurmashell
p616
(dp617
g4
V18.5204303
p618
sg6
V73.8567437
p619
ssVKirloskar
p620
(dp621
g4
V18.495552
p622
sg6
V73.667893
p623
ssVRahatani gaon
p624
(dp625
g4
V18.602959
p626
sg6
V73.795395
p627
ssVNeeta park
p628
(dp629
g4
V18.545795
p630
sg6
V73.887882
p631
ssVSambhaji Nagar
p632
(dp633
g4
V18.450434
p634
sg6
V73.8874799
p635
ssVGaikwad wasti Nandegaon
p636
(dp637
g4
V18.5204303
p638
sg6
V73.8567437
p639
ssVLakshmi narayan theature
p640
(dp641
g4
V18.5204303
p642
sg6
V73.8567437
p643
ssVGarware Bungalow
p644
(dp645
g4
V18.5204303
p646
sg6
V73.8567437
p647
ssVChitrashala
p648
(dp649
g4
V18.512899
p650
sg6
V73.844905
p651
ssVADP hadapasar
p652
(dp653
g4
V18.4895498
p654
sg6
V73.9535244
p655
ssVApsara Talkies
p656
(dp657
g4
V18.499607
p658
sg6
V73.869439
p659
ssVNigadi
p660
(dp661
g4
V18.6517098
p662
sg6
V73.7683784
p663
ssVGar mala
p664
(dp665
g4
V18.5204303
p666
sg6
V73.8567437
p667
ssVDiamond Company
p668
(dp669
g4
V18.350353
p670
sg6
V73.805555
p671
ssVDighigaon
p672
(dp673
g4
V18.609318
p674
sg6
V73.873257
p675
ssVKalwad
p676
(dp677
g4
V18.5862229
p678
sg6
V73.9193407
p679
ssVHingne rasta
p680
(dp681
g4
V18.4833994
p682
sg6
V73.8351041
p683
ssVMaharshi nagar
p684
(dp685
g4
V18.4871425
p686
sg6
V73.8624893
p687
ssVSanjay Nilgiri Garden Shinde Wast
p688
(dp689
g4
V18.5204303
p690
sg6
V73.8567437
p691
ssVModern Bakery Nana peth
p692
(dp693
g4
V18.515391
p694
sg6
V73.867056
p695
ssVPune poultry farm
p696
(dp697
g4
V18.546806
p698
sg6
V73.851656
p699
ssVSakore mala
p700
(dp701
g4
V18.5204303
p702
sg6
V73.8567437
p703
ssVKalewadigaon phata
p704
(dp705
g4
V18.603829
p706
sg6
V73.776539
p707
ssVShrinagar
p708
(dp709
g4
V18.4208437
p710
sg6
V73.762495
p711
ssVMandhare wasti pole phata
p712
(dp713
g4
V18.5204303
p714
sg6
V73.8567437
p715
ssVKarve putala
p716
(dp717
g4
V18.502256
p718
sg6
V73.816181
p719
ssVLakaki Bungalow
p720
(dp721
g4
V18.5204303
p722
sg6
V73.8567437
p723
ssVWadgaon bu. Highway
p724
(dp725
g4
V18.481564
p726
sg6
V73.857141
p727
ssVRanware wasti
p728
(dp729
g4
V18.5204303
p730
sg6
V73.8567437
p731
ssVTheur gaon
p732
(dp733
g4
V18.522877
p734
sg6
V74.046326
p735
ssVShastri nagar
p736
(dp737
g4
V18.5041381
p738
sg6
V73.8014693
p739
ssVKolhewadi
p740
(dp741
g4
V18.4422637
p742
sg6
V73.7852922
p743
ssVKhadaki Station corner
p744
(dp745
g4
V18.560732
p746
sg6
V73.841308
p747
ssVShivaji putala Kalubai mandir
p748
(dp749
g4
V18.5204303
p750
sg6
V73.8567437
p751
ssV40 aundh road
p752
(dp753
g4
V18.562405
p754
sg6
V73.833546
p755
ssVParandhwadi
p756
(dp757
g4
V18.6980909
p758
sg6
V73.6580359
p759
ssVHinjewadi Jakatnaka
p760
(dp761
g4
V18.591836
p762
sg6
V73.756851
p763
ssVPolice Line Modern College
p764
(dp765
g4
V18.5204303
p766
sg6
V73.8567437
p767
ssVYamunanagar Corner
p768
(dp769
g4
V18.664508
p770
sg6
V73.786573
p771
ssVIndrayani nagar Corner
p772
(dp773
g4
V18.540509
p774
sg6
V73.830538
p775
ssVGAF Filters
p776
(dp777
g4
V18.5204303
p778
sg6
V73.8567437
p779
ssVNal Stop
p780
(dp781
g4
V18.509019
p782
sg6
V73.831963
p783
ssV16 Number 
p784
(dp785
g4
V18.6216754
p786
sg6
V73.6927378
p787
ssVAshish Garden
p788
(dp789
g4
V18.502481
p790
sg6
V73.801544
p791
ssVBungalow no 105
p792
(dp793
g4
V18.4866252
p794
sg6
V73.9503603
p795
ssVTata Guardroom Kharadi Phata
p796
(dp797
g4
V18.562652
p798
sg6
V73.927638
p799
ssVDalvi wasti
p800
(dp801
g4
V18.258591
p802
sg6
V73.88531
p803
ssVSwargate police line
p804
(dp805
g4
V18.500523
p806
sg6
V73.859593
p807
ssVCentral building 
p808
(dp809
g4
V18.524298
p810
sg6
V73.872334
p811
ssVHood company
p812
(dp813
g4
V18.5204303
p814
sg6
V73.8567437
p815
ssVKhadakwasla Dharan
p816
(dp817
g4
V18.5204303
p818
sg6
V73.8567437
p819
ssVAlhat wasti
p820
(dp821
g4
V18.5204303
p822
sg6
V73.8567437
p823
ssVParvati payatha
p824
(dp825
g4
V18.499338
p826
sg6
V73.852616
p827
ssVShubham Society 
p828
(dp829
g4
V18.554676
p830
sg6
V73.919494
p831
ssVDaruwala Pool
p832
(dp833
g4
V18.519931
p834
sg6
V73.861469
p835
ssVBhaurao Patil Chowk
p836
(dp837
g4
V18.566363
p838
sg6
V73.831334
p839
ssVAgarwal Container
p840
(dp841
g4
V18.5204303
p842
sg6
V73.8567437
p843
ssVKhadi Machine Gujarwadi
p844
(dp845
g4
V18.434502
p846
sg6
V73.868699
p847
ssVSadashiv Peth Houd
p848
(dp849
g4
V18.5082981
p850
sg6
V73.844732
p851
ssVDehu road police station
p852
(dp853
g4
V18.686313
p854
sg6
V73.722184
p855
ssVBharti vidyapeeth gate
p856
(dp857
g4
V18.542963
p858
sg6
V73.828643
p859
ssVVitthalwadi phata
p860
(dp861
g4
V18.5204303
p862
sg6
V73.8567437
p863
ssVBalewadi
p864
(dp865
g4
V18.5825868
p866
sg6
V73.7683784
p867
ssVLIC corner
p868
(dp869
g4
V18.5204303
p870
sg6
V73.8567437
p871
ssVPawar Wasti
p872
(dp873
g4
V18.626292
p874
sg6
V73.751647
p875
ssVPerne Phata
p876
(dp877
g4
V18.641172
p878
sg6
V74.050471
p879
ssVGulnur Farm
p880
(dp881
g4
V18.343755
p882
sg6
V73.834029
p883
ssVChincholi
p884
(dp885
g4
V18.6898223
p886
sg6
V73.7514631
p887
ssVAtlas Company
p888
(dp889
g4
V18.5204303
p890
sg6
V73.8567437
p891
ssVDaulatnagar Patilbag
p892
(dp893
g4
V18.5204303
p894
sg6
V73.8567437
p895
ssVDhanori Gaon
p896
(dp897
g4
V18.596693
p898
sg6
V73.897405
p899
ssVGanesh Nagar 
p900
(dp901
g4
V18.4940191
p902
sg6
V73.8257325
p903
ssVShivsagar mangal karyalay
p904
(dp905
g4
V18.5204303
p906
sg6
V73.8567437
p907
ssVFuel depot
p908
(dp909
g4
V18.5204303
p910
sg6
V73.8567437
p911
ssVUttamnagar
p912
(dp913
g4
V18.460409
p914
sg6
V73.772238
p915
ssVYamunanagar corner
p916
(dp917
g4
V18.664508
p918
sg6
V73.786573
p919
ssVPrayag Dham Phata 
p920
(dp921
g4
V18.5204303
p922
sg6
V73.8567437
p923
ssVSandwik
p924
(dp925
g4
V18.593351
p926
sg6
V73.829863
p927
ssVBadade wasti
p928
(dp929
g4
V18.5204303
p930
sg6
V73.8567437
p931
ssVVenkatesh poultry farm
p932
(dp933
g4
V18.406694
p934
sg6
V73.756346
p935
ssVMehandale Guarage
p936
(dp937
g4
V18.5204303
p938
sg6
V73.8567437
p939
ssVShinde wasti lohgoan
p940
(dp941
g4
V18.6035851
p942
sg6
V73.9312734
p943
ssVPimpale Saudagar
p944
(dp945
g4
V18.596692
p946
sg6
V73.7977928
p947
ssVRailway Crossing Gorpadi 
p948
(dp949
g4
V18.516026
p950
sg6
V73.907262
p951
ssVDhangar Nagar Kalewadi
p952
(dp953
g4
V18.6150264
p954
sg6
V73.7933809
p955
ssVRailway Crossing Mohammadwadi
p956
(dp957
g4
V18.5204303
p958
sg6
V73.8567437
p959
ssVGhotawade gaon
p960
(dp961
g4
V18.5204303
p962
sg6
V73.8567437
p963
ssVAshoknagar Dehuroad
p964
(dp965
g4
V18.678599
p966
sg6
V73.742183
p967
ssVKalubai mandir
p968
(dp969
g4
V18.506623
p970
sg6
V73.906536
p971
ssVGhorpadi Post Office
p972
(dp973
g4
V18.52509
p974
sg6
V73.894597
p975
ssVShivaji Putala Kalubai Mandir
p976
(dp977
g4
V18.5204303
p978
sg6
V73.8567437
p979
ssVMagar College
p980
(dp981
g4
V18.5083433
p982
sg6
V73.9546132
p983
ssVPetrol pump vikasnagar
p984
(dp985
g4
V18.5204303
p986
sg6
V73.8567437
p987
ssVRamwadi
p988
(dp989
g4
V18.5566792
p990
sg6
V73.9094835
p991
ssVBhugoan
p992
(dp993
g4
V18.50153
p994
sg6
V73.758089
p995
ssVJakate wasti
p996
(dp997
g4
V18.5204303
p998
sg6
V73.8567437
p999
ssVAhire gaon
p1000
(dp1001
g4
V18.455339
p1002
sg6
V73.732116
p1003
ssVAnand nagar singhgad rd
p1004
(dp1005
g4
V18.4790788
p1006
sg6
V73.8255677
p1007
ssVNandoshi
p1008
(dp1009
g4
V18.4220836
p1010
sg6
V73.8014693
p1011
ssVSant Tukaram Mangal Karyalaya
p1012
(dp1013
g4
V18.5119016
p1014
sg6
V73.8545505
p1015
ssVPower house Bhosari
p1016
(dp1017
g4
V18.631696
p1018
sg6
V73.830628
p1019
ssVShirke Company 
p1020
(dp1021
g4
V18.528565
p1022
sg6
V73.906239
p1023
ssVVikrikar Karyalaya
p1024
(dp1025
g4
V18.5204303
p1026
sg6
V73.8567437
p1027
ssVChatushringi payatha
p1028
(dp1029
g4
V18.5204303
p1030
sg6
V73.8567437
p1031
ssVJadhav nagar
p1032
(dp1033
g4
V18.4661359
p1034
sg6
V73.8279381
p1035
ssVGangapuram Mhada
p1036
(dp1037
g4
V18.57266
p1038
sg6
V73.911666
p1039
ssVKuruli Gaon
p1040
(dp1041
g4
V18.715294
p1042
sg6
V73.848259
p1043
ssVLagad wasti
p1044
(dp1045
g4
V18.5204303
p1046
sg6
V73.8567437
p1047
ssVGul aali
p1048
(dp1049
g4
V18.5039377
p1050
sg6
V73.8595928
p1051
ssVChinchwade nagar corner Akurdi road
p1052
(dp1053
g4
V18.5204303
p1054
sg6
V73.8567437
p1055
ssVBopodi
p1056
(dp1057
g4
V18.5667907
p1058
sg6
V73.8345548
p1059
ssVPawarwadi 
p1060
(dp1061
g4
V18.0228123
p1062
sg6
V74.6488264
p1063
ssVBhukoom Ashram
p1064
(dp1065
g4
V18.498163
p1066
sg6
V73.714696
p1067
ssVBhosari gaon
p1068
(dp1069
g4
V18.6247121
p1070
sg6
V73.8483387
p1071
ssVSasoon hospital
p1072
(dp1073
g4
V18.525701
p1074
sg6
V73.87206
p1075
ssVKeertane Bag
p1076
(dp1077
g4
V18.5284964
p1078
sg6
V73.9323081
p1079
ssVChandan nagar
p1080
(dp1081
g4
V18.5472058
p1082
sg6
V73.9403908
p1083
ssVShivpushpak park
p1084
(dp1085
g4
V18.5204303
p1086
sg6
V73.8567437
p1087
ssVCircle IT Park
p1088
(dp1089
g4
V18.5204303
p1090
sg6
V73.8567437
p1091
ssVShinde Wasti Burkegaon
p1092
(dp1093
g4
V18.5204303
p1094
sg6
V73.8567437
p1095
ssVLaxmideep colony
p1096
(dp1097
g4
V18.4971364
p1098
sg6
V73.9569225
p1099
ssVMangdewadi Petrol Pump
p1100
(dp1101
g4
V18.436368
p1102
sg6
V73.86054
p1103
ssV Mail Dagad Kramank 10
p1104
(dp1105
g4
V18.5204303
p1106
sg6
V73.8567437
p1107
ssVJijamata chowk Talegaon
p1108
(dp1109
g4
V18.7167
p1110
sg6
V73.6833
p1111
ssVPower House Markal
p1112
(dp1113
g4
V18.6718661
p1114
sg6
V73.9653715
p1115
ssVLullanagar
p1116
(dp1117
g4
V18.4821147
p1118
sg6
V73.8874799
p1119
ssVTangde Bandhu Mala
p1120
(dp1121
g4
V18.5204303
p1122
sg6
V73.8567437
p1123
ssVRaja Bahadur mill
p1124
(dp1125
g4
V18.529991
p1126
sg6
V73.86862
p1127
ssVSarang Society
p1128
(dp1129
g4
V18.489427
p1130
sg6
V73.84986
p1131
ssVNatu bag
p1132
(dp1133
g4
V18.481564
p1134
sg6
V73.857141
p1135
ssVGunjan Theature
p1136
(dp1137
g4
V18.5204303
p1138
sg6
V73.8567437
p1139
ssVSambhaji chowk
p1140
(dp1141
g4
V18.5111468
p1142
sg6
V73.8371508
p1143
ssVBaner odha
p1144
(dp1145
g4
V18.5204303
p1146
sg6
V73.8567437
p1147
ssVNerhe Phata
p1148
(dp1149
g4
V18.4489065
p1150
sg6
V73.8263226
p1151
ssVRajaram Gas agency
p1152
(dp1153
g4
V18.454604
p1154
sg6
V73.853738
p1155
ssVChha. Shivaji Krida Sankul
p1156
(dp1157
g4
V18.5204303
p1158
sg6
V73.8567437
p1159
ssVLaw college
p1160
(dp1161
g4
V18.516111
p1162
sg6
V73.829066
p1163
ssVCharholi phata
p1164
(dp1165
g4
V18.5204303
p1166
sg6
V73.8567437
p1167
ssVNakate wasti
p1168
(dp1169
g4
V18.604815
p1170
sg6
V73.786519
p1171
ssVLakud Bajar 
p1172
(dp1173
g4
V18.5204303
p1174
sg6
V73.8567437
p1175
ssVRajwade banglaow
p1176
(dp1177
g4
V18.507534
p1178
sg6
V73.778459
p1179
ssVVasant Bag
p1180
(dp1181
g4
V18.4817828
p1182
sg6
V73.8588139
p1183
ssVPolcompany
p1184
(dp1185
g4
V18.5204303
p1186
sg6
V73.8567437
p1187
ssVDonje Goan Phata
p1188
(dp1189
g4
V18.5204303
p1190
sg6
V73.8567437
p1191
ssVKamala nehru hospital
p1192
(dp1193
g4
V18.522617
p1194
sg6
V73.862728
p1195
ssVAshoknagar
p1196
(dp1197
g4
V18.5414013
p1198
sg6
V73.8396802
p1199
ssVBhekrai nagar
p1200
(dp1201
g4
V18.5204303
p1202
sg6
V73.8567437
p1203
ssVAbhinav college
p1204
(dp1205
g4
V18.544885
p1206
sg6
V73.779118
p1207
ssVMeera society
p1208
(dp1209
g4
V18.5004785
p1210
sg6
V73.8709424
p1211
ssVSaswad Bus stand 
p1212
(dp1213
g4
V18.345231
p1214
sg6
V74.031542
p1215
ssVPower House IT Park
p1216
(dp1217
g4
V18.5204303
p1218
sg6
V73.8567437
p1219
ssVBhar Phata
p1220
(dp1221
g4
V18.531148
p1222
sg6
V73.669976
p1223
ssVGarden City
p1224
(dp1225
g4
V18.6807904
p1226
sg6
V73.7470502
p1227
ssVMundhava Gaon Corner
p1228
(dp1229
g4
V18.533802
p1230
sg6
V73.929892
p1231
ssVSomanagar Society
p1232
(dp1233
g4
V18.5204303
p1234
sg6
V73.8567437
p1235
ssVWardade phata
p1236
(dp1237
g4
V18.389412
p1238
sg6
V73.700424
p1239
ssVMalwadi
p1240
(dp1241
g4
V18.5115727
p1242
sg6
V73.9447994
p1243
ssVElectronic sadan
p1244
(dp1245
g4
V18.5204303
p1246
sg6
V73.8567437
p1247
ssVShagun chowk
p1248
(dp1249
g4
V18.622606
p1250
sg6
V73.801505
p1251
ssVPanchami hotel
p1252
(dp1253
g4
V18.49174
p1254
sg6
V73.857581
p1255
ssVRambag solapur rd
p1256
(dp1257
g4
V18.5062211
p1258
sg6
V73.9126174
p1259
ssVLink Road
p1260
(dp1261
g4
V18.6142312
p1262
sg6
V73.7756244
p1263
ssVRamchandranagar
p1264
(dp1265
g4
V18.5164908
p1266
sg6
V73.8480476
p1267
ssVTalemala
p1268
(dp1269
g4
V18.5204303
p1270
sg6
V73.8567437
p1271
ssVParvati darshan vasahat
p1272
(dp1273
g4
V18.494443
p1274
sg6
V73.85429
p1275
ssVAlankar Police Chowki
p1276
(dp1277
g4
V18.497925
p1278
sg6
V73.826951
p1279
ssVWaghmare wasti
p1280
(dp1281
g4
V18.8149596
p1282
sg6
V74.4459679
p1283
ssVMariaai Mandir Bhugaon
p1284
(dp1285
g4
V18.5204303
p1286
sg6
V73.8567437
p1287
ssVPatvardhan Farm
p1288
(dp1289
g4
V18.5204303
p1290
sg6
V73.8567437
p1291
ssVMoshi goan
p1292
(dp1293
g4
V18.6765
p1294
sg6
V73.849568
p1295
ssVShitole wasti Nandegaon
p1296
(dp1297
g4
V18.545401
p1298
sg6
V73.713225
p1299
ssVGangaram park
p1300
(dp1301
g4
V18.5204303
p1302
sg6
V73.8567437
p1303
ssVAnandpark Kharadi
p1304
(dp1305
g4
V18.5541598
p1306
sg6
V73.9302206
p1307
ssVShikrapur Phata
p1308
(dp1309
g4
V18.5204303
p1310
sg6
V73.8567437
p1311
ssVChincheche jhad
p1312
(dp1313
g4
V18.5204303
p1314
sg6
V73.8567437
p1315
ssVBijali nagar
p1316
(dp1317
g4
V18.6394732
p1318
sg6
V73.7623111
p1319
ssVGokul bhavan
p1320
(dp1321
g4
V18.504163
p1322
sg6
V73.853548
p1323
ssVKhadakwasla Gaon
p1324
(dp1325
g4
V18.4534504
p1326
sg6
V73.8227917
p1327
ssVShankarwadi
p1328
(dp1329
g4
V18.5204303
p1330
sg6
V73.8567437
p1331
ssVSambhaji chauk
p1332
(dp1333
g4
V18.5111468
p1334
sg6
V73.8371508
p1335
ssVPabal Phata
p1336
(dp1337
g4
V18.5204303
p1338
sg6
V73.8567437
p1339
ssVPolice head office
p1340
(dp1341
g4
V18.540574
p1342
sg6
V73.820782
p1343
ssVAdarshnagar Corner
p1344
(dp1345
g4
V18.5494576
p1346
sg6
V73.9142357
p1347
ssVDabhade Wasti
p1348
(dp1349
g4
V18.657166
p1350
sg6
V73.899111
p1351
ssVMhatobachi Alandi
p1352
(dp1353
g4
V18.452382
p1354
sg6
V74.0690625
p1355
ssVAjinkyatara
p1356
(dp1357
g4
V18.4624953
p1358
sg6
V73.832446
p1359
ssVWadgaon Maval Phata
p1360
(dp1361
g4
V18.5204303
p1362
sg6
V73.8567437
p1363
ssVShivdarshan Vasahat
p1364
(dp1365
g4
V18.4900896
p1366
sg6
V73.8531232
p1367
ssVGodown Marketyard
p1368
(dp1369
g4
V18.489475
p1370
sg6
V73.869728
p1371
ssVDSK Toyota Showroom
p1372
(dp1373
g4
V18.5204303
p1374
sg6
V73.8567437
p1375
ssVAkurdi rly stn
p1376
(dp1377
g4
V18.6508219
p1378
sg6
V73.7673837
p1379
ssVDahanukar colony
p1380
(dp1381
g4
V18.4956151
p1382
sg6
V73.8110279
p1383
ssVGanganagar
p1384
(dp1385
g4
V18.4930796
p1386
sg6
V73.9558204
p1387
ssVShanipar Bus Stand
p1388
(dp1389
g4
V18.512798
p1390
sg6
V73.852933
p1391
ssVPICT Bharati vidyapeeth
p1392
(dp1393
g4
V18.5138275
p1394
sg6
V73.819667
p1395
ssVKalamkar wasti
p1396
(dp1397
g4
V18.5204303
p1398
sg6
V73.8567437
p1399
ssVPimpale Saudagar Chowk
p1400
(dp1401
g4
V18.6106899
p1402
sg6
V73.7990755
p1403
ssVPune central
p1404
(dp1405
g4
V18.534776
p1406
sg6
V73.838998
p1407
ssVKumbare Park
p1408
(dp1409
g4
V18.5204303
p1410
sg6
V73.8567437
p1411
ssVPanchwati
p1412
(dp1413
g4
V18.5287353
p1414
sg6
V73.8157056
p1415
ssVKrutrim reshim paidas kendra
p1416
(dp1417
g4
V18.549212
p1418
sg6
V73.8509
p1419
ssVAlandi Phata
p1420
(dp1421
g4
V18.731698
p1422
sg6
V73.856187
p1423
ssVSortapwadi
p1424
(dp1425
g4
V18.4770575
p1426
sg6
V74.0960995
p1427
ssVPawale chauk
p1428
(dp1429
g4
V18.5204303
p1430
sg6
V73.8567437
p1431
ssVDagade wasti
p1432
(dp1433
g4
V18.507083
p1434
sg6
V73.776682
p1435
ssVSant Dharmaji Samadhi
p1436
(dp1437
g4
V18.5204303
p1438
sg6
V73.8567437
p1439
ssVBodhe wasti 
p1440
(dp1441
g4
V18.5204303
p1442
sg6
V73.8567437
p1443
ssVHagwane Padwal
p1444
(dp1445
g4
V18.441734
p1446
sg6
V73.790413
p1447
ssVRaykar wasti
p1448
(dp1449
g4
V18.457172
p1450
sg6
V73.811772
p1451
ssVIndrayani Nadi Pool
p1452
(dp1453
g4
V18.670046
p1454
sg6
V73.984985
p1455
ssVDehu phata
p1456
(dp1457
g4
V18.669867
p1458
sg6
V73.891174
p1459
ssVCable company
p1460
(dp1461
g4
V18.5204303
p1462
sg6
V73.8567437
p1463
ssVPCMT
p1464
(dp1465
g4
V18.620129
p1466
sg6
V73.85043
p1467
ssVBhandari hospital
p1468
(dp1469
g4
V18.718266
p1470
sg6
V73.680375
p1471
ssVSutarwadi paudroad
p1472
(dp1473
g4
V18.5204303
p1474
sg6
V73.8567437
p1475
ssVSwargate corner
p1476
(dp1477
g4
V18.5015
p1478
sg6
V73.858617
p1479
ssVVitthalwadi Mandir Masulkar
p1480
(dp1481
g4
V18.5204303
p1482
sg6
V73.8567437
p1483
ssVPower house markal
p1484
(dp1485
g4
V18.6718661
p1486
sg6
V73.9653715
p1487
ssVSangvi Phata
p1488
(dp1489
g4
V18.572723
p1490
sg6
V73.807171
p1491
ssVChaudhri Vasti
p1492
(dp1493
g4
V18.5204303
p1494
sg6
V73.8567437
p1495
ssVPanyachi Taki Chandannagar
p1496
(dp1497
g4
V18.5204303
p1498
sg6
V73.8567437
p1499
ssVCentral school khese
p1500
(dp1501
g4
V18.5204303
p1502
sg6
V73.8567437
p1503
ssVpanyachi takai sangvi
p1504
(dp1505
g4
V18.575547
p1506
sg6
V73.815303
p1507
ssVRamnagar Bharat Electronics
p1508
(dp1509
g4
V18.5269904
p1510
sg6
V73.7829405
p1511
ssVChaitnya sabhagrah
p1512
(dp1513
g4
V18.4883323
p1514
sg6
V73.8131
p1515
ssVSinhgad Payth Aatekar wasti
p1516
(dp1517
g4
V18.5204303
p1518
sg6
V73.8567437
p1519
ssVPune Vidyapeeth
p1520
(dp1521
g4
V18.555833
p1522
sg6
V73.822598
p1523
ssVNirmal Township
p1524
(dp1525
g4
V18.489086
p1526
sg6
V73.93763
p1527
ssVShantinagar
p1528
(dp1529
g4
V18.6234735
p1530
sg6
V73.8444793
p1531
ssVVivekanand Society
p1532
(dp1533
g4
V18.5780193
p1534
sg6
V73.8106603
p1535
ssVVishrantwadi
p1536
(dp1537
g4
V18.5784956
p1538
sg6
V73.8819676
p1539
ssVRajas Soc. Corner
p1540
(dp1541
g4
V18.5273078
p1542
sg6
V73.8286185
p1543
ssVRastewada
p1544
(dp1545
g4
V18.5204389
p1546
sg6
V73.864941
p1547
ssVLoyala Highschool
p1548
(dp1549
g4
V18.5364174
p1550
sg6
V73.8195119
p1551
ssVKadus Phata
p1552
(dp1553
g4
V18.5204303
p1554
sg6
V73.8567437
p1555
ssVPower House Phulgaon
p1556
(dp1557
g4
V18.656031
p1558
sg6
V74.0153231
p1559
ssVSuvarna park
p1560
(dp1561
g4
V18.591203
p1562
sg6
V73.81961
p1563
ssVKanda Engineering Company
p1564
(dp1565
g4
V18.5204303
p1566
sg6
V73.8567437
p1567
ssVHighpeek Company
p1568
(dp1569
g4
V18.5204303
p1570
sg6
V73.8567437
p1571
ssVKhandoba Mandir Corner
p1572
(dp1573
g4
V18.5204303
p1574
sg6
V73.8567437
p1575
ssVUndrigaon 
p1576
(dp1577
g4
V18.450695
p1578
sg6
V73.915601
p1579
ssVShubham hotel
p1580
(dp1581
g4
V18.5204303
p1582
sg6
V73.8567437
p1583
ssVTelco hostel
p1584
(dp1585
g4
V18.5204303
p1586
sg6
V73.8567437
p1587
ssVAlfa paper mill
p1588
(dp1589
g4
V18.5204303
p1590
sg6
V73.8567437
p1591
ssVPhursungi
p1592
(dp1593
g4
V18.4726725
p1594
sg6
V73.9784573
p1595
ssVSweet mart
p1596
(dp1597
g4
V18.5204303
p1598
sg6
V73.8567437
p1599
ssVBibwewadi
p1600
(dp1601
g4
V18.4703742
p1602
sg6
V73.8683697
p1603
ssVGhorpadi Shala
p1604
(dp1605
g4
V18.5229255
p1606
sg6
V73.8677464
p1607
ssVTrimurti garden
p1608
(dp1609
g4
V18.4661727
p1610
sg6
V73.8172355
p1611
ssVSai Lila nagar Kate Wasti
p1612
(dp1613
g4
V18.5204303
p1614
sg6
V73.8567437
p1615
ssVMalwadi Kirkat wadi
p1616
(dp1617
g4
V18.5204303
p1618
sg6
V73.8567437
p1619
ssVTapgir nagar
p1620
(dp1621
g4
V18.6518817
p1622
sg6
V73.8521981
p1623
ssVShaskiya vishramgrah paud road
p1624
(dp1625
g4
V18.5140297
p1626
sg6
V73.8206202
p1627
ssVNandoshi Phata
p1628
(dp1629
g4
V18.5204303
p1630
sg6
V73.8567437
p1631
ssVSudarshan nagar Katraj
p1632
(dp1633
g4
V18.492854
p1634
sg6
V73.8239399
p1635
ssVPatil Chowk
p1636
(dp1637
g4
V18.534799
p1638
sg6
V73.879601
p1639
ssVBhandari Company
p1640
(dp1641
g4
V18.5204303
p1642
sg6
V73.8567437
p1643
ssVDhayreshwar Mandir
p1644
(dp1645
g4
V18.5204303
p1646
sg6
V73.8567437
p1647
ssVRaman bag
p1648
(dp1649
g4
V18.4962948
p1650
sg6
V73.8437247
p1651
ssVSayali Restaurant
p1652
(dp1653
g4
V18.5204303
p1654
sg6
V73.8567437
p1655
ssVAmbegaon
p1656
(dp1657
g4
V19.128151
p1658
sg6
V73.697387
p1659
ssVRailway quarters
p1660
(dp1661
g4
V18.64629
p1662
sg6
V73.770492
p1663
ssVParamhans corner
p1664
(dp1665
g4
V18.5204303
p1666
sg6
V73.8567437
p1667
ssVTapkir Nagar
p1668
(dp1669
g4
V18.6518817
p1670
sg6
V73.8521981
p1671
ssVJal Shuddhikarn Kendra Sinhgad Road
p1672
(dp1673
g4
V18.497971
p1674
sg6
V73.84092
p1675
ssVSakal nagar
p1676
(dp1677
g4
V18.5471748
p1678
sg6
V73.8202184
p1679
ssVSane wasti
p1680
(dp1681
g4
V18.5035861
p1682
sg6
V73.9388143
p1683
ssVMordari phata
p1684
(dp1685
g4
V18.5204303
p1686
sg6
V73.8567437
p1687
ssVShel Pimpalgaon
p1688
(dp1689
g4
V18.7374043
p1690
sg6
V73.9565551
p1691
ssVKarvenagar
p1692
(dp1693
g4
V18.4903696
p1694
sg6
V73.8169099
p1695
ssVJaydeo nagar
p1696
(dp1697
g4
V18.489225
p1698
sg6
V73.830747
p1699
ssVA D camp chauk
p1700
(dp1701
g4
V18.5184641
p1702
sg6
V73.8792278
p1703
ssVKodhanpur Phata
p1704
(dp1705
g4
V18.347933
p1706
sg6
V73.851646
p1707
ssVShivane gaon
p1708
(dp1709
g4
V18.4558393
p1710
sg6
V73.8209234
p1711
ssVGanesh mandir
p1712
(dp1713
g4
V18.57432
p1714
sg6
V73.892871
p1715
ssVDapodi Gaon
p1716
(dp1717
g4
V18.5639463
p1718
sg6
V73.8102927
p1719
ssVDimond watch company
p1720
(dp1721
g4
V18.533852
p1722
sg6
V73.923752
p1723
ssVChandrabhaga Restaurant
p1724
(dp1725
g4
V18.45405
p1726
sg6
V73.851345
p1727
ssVShivaji putala
p1728
(dp1729
g4
V18.526617
p1730
sg6
V73.852559
p1731
ssVBank of badoda
p1732
(dp1733
g4
V18.5350453
p1734
sg6
V73.8328087
p1735
ssVSwaraj mazda
p1736
(dp1737
g4
V18.5204303
p1738
sg6
V73.8567437
p1739
ssVJavalkar Hospital
p1740
(dp1741
g4
V18.605501
p1742
sg6
V73.823098
p1743
ssVGanesh mala
p1744
(dp1745
g4
V18.496415
p1746
sg6
V73.838769
p1747
ssVEgale Plax Petrol Pump
p1748
(dp1749
g4
V18.5204303
p1750
sg6
V73.8567437
p1751
ssVKalptaru Society
p1752
(dp1753
g4
V18.5204303
p1754
sg6
V73.8567437
p1755
ssVBhandarkar Institute
p1756
(dp1757
g4
V18.519612
p1758
sg6
V73.830343
p1759
ssVKekan gas agency
p1760
(dp1761
g4
V18.5204303
p1762
sg6
V73.8567437
p1763
ssVRaje Phata
p1764
(dp1765
g4
V18.9805417
p1766
sg6
V73.1375421
p1767
ssVParanjpe Hospital
p1768
(dp1769
g4
V18.5086456
p1770
sg6
V73.8448469
p1771
ssVTamnya wasti
p1772
(dp1773
g4
V18.5204303
p1774
sg6
V73.8567437
p1775
ssVKhadi Machine
p1776
(dp1777
g4
V18.452978
p1778
sg6
V73.890933
p1779
ssVDakshinabhimukh Maruti mandir
p1780
(dp1781
g4
V18.6569183
p1782
sg6
V73.7679965
p1783
ssVDnanesh society
p1784
(dp1785
g4
V18.479579
p1786
sg6
V73.7973269
p1787
ssVPune Station Depot
p1788
(dp1789
g4
V18.527378
p1790
sg6
V73.87636
p1791
ssVGreen Ekers
p1792
(dp1793
g4
V18.457392
p1794
sg6
V73.804411
p1795
ssVMasulkar Colony
p1796
(dp1797
g4
V18.633612
p1798
sg6
V73.807355
p1799
ssVKohima line
p1800
(dp1801
g4
V18.5204303
p1802
sg6
V73.8567437
p1803
ssVMore vidyalaya
p1804
(dp1805
g4
V18.51045
p1806
sg6
V73.819635
p1807
ssVLaxminagar police chauki
p1808
(dp1809
g4
V18.4947587
p1810
sg6
V73.8545733
p1811
ssVSadanand Nagar
p1812
(dp1813
g4
V18.52235
p1814
sg6
V73.865135
p1815
ssVDhole Patil Farm
p1816
(dp1817
g4
V18.5204303
p1818
sg6
V73.8567437
p1819
ssVPower house fursungi
p1820
(dp1821
g4
V18.476421
p1822
sg6
V73.957156
p1823
ssVMahesh Vidyalaya
p1824
(dp1825
g4
V18.5204303
p1826
sg6
V73.8567437
p1827
ssVNarhe Gaon
p1828
(dp1829
g4
V18.4534504
p1830
sg6
V73.8227917
p1831
ssVGurudwara Chowk
p1832
(dp1833
g4
V18.645935
p1834
sg6
V73.766419
p1835
ssVKhadaki station corner
p1836
(dp1837
g4
V18.560732
p1838
sg6
V73.841308
p1839
ssVLaxman nagar
p1840
(dp1841
g4
V18.5687742
p1842
sg6
V73.7709523
p1843
ssVRamnagar rahatni
p1844
(dp1845
g4
V18.603268
p1846
sg6
V73.792478
p1847
ssVDairy farm
p1848
(dp1849
g4
V18.620593
p1850
sg6
V73.76071
p1851
ssVKhole wasti 
p1852
(dp1853
g4
V18.5204303
p1854
sg6
V73.8567437
p1855
ssVBhosale Wasti 
p1856
(dp1857
g4
V18.5512304
p1858
sg6
V73.7990016
p1859
ssVChinchwad chauk
p1860
(dp1861
g4
V18.5111468
p1862
sg6
V73.8371508
p1863
ssVWeikfield
p1864
(dp1865
g4
V18.5586323
p1866
sg6
V73.9108729
p1867
ssVM23
p1868
(dp1869
g4
V18.531082
p1870
sg6
V73.8669505
p1871
ssVSarkari Vishram Gruh
p1872
(dp1873
g4
V18.5204303
p1874
sg6
V73.8567437
p1875
ssVPoona club
p1876
(dp1877
g4
V18.5233409
p1878
sg6
V73.8792113
p1879
ssVHanuman Mandir Charminar 
p1880
(dp1881
g4
V18.5204303
p1882
sg6
V73.8567437
p1883
ssVDangat wasti
p1884
(dp1885
g4
V18.457172
p1886
sg6
V73.811772
p1887
ssVMore bag
p1888
(dp1889
g4
V18.4517392
p1890
sg6
V73.8566485
p1891
ssVMahatma Phule wasahat
p1892
(dp1893
g4
V18.622309
p1894
sg6
V73.8460874
p1895
ssVLukad Wasti
p1896
(dp1897
g4
V18.512122
p1898
sg6
V73.947284
p1899
ssVPinnac Society
p1900
(dp1901
g4
V18.5204303
p1902
sg6
V73.8567437
p1903
ssVRCM 
p1904
(dp1905
g4
V18.5194658
p1906
sg6
V73.8605597
p1907
ssVGandhi Acid Company
p1908
(dp1909
g4
V18.5204303
p1910
sg6
V73.8567437
p1911
ssVBandal farm
p1912
(dp1913
g4
V18.498453
p1914
sg6
V73.719136
p1915
ssVPratik nagar
p1916
(dp1917
g4
V18.558549
p1918
sg6
V73.9341451
p1919
ssVDeichi company
p1920
(dp1921
g4
V18.5204303
p1922
sg6
V73.8567437
p1923
ssVCISV
p1924
(dp1925
g4
V18.5204303
p1926
sg6
V73.8567437
p1927
ssVExpress highway phata
p1928
(dp1929
g4
V19.0229364
p1930
sg6
V73.0451677
p1931
ssVPetrol Pump Karve Road
p1932
(dp1933
g4
V18.510551
p1934
sg6
V73.834878
p1935
ssVBremen chauk
p1936
(dp1937
g4
V18.559766
p1938
sg6
V73.815308
p1939
ssVShastri chowk
p1940
(dp1941
g4
V18.513673
p1942
sg6
V73.859569
p1943
ssVDhayareshwar Industries
p1944
(dp1945
g4
V18.5204303
p1946
sg6
V73.8567437
p1947
ssVKadam Wasti
p1948
(dp1949
g4
V18.7277318
p1950
sg6
V73.6544392
p1951
ssVBody gate
p1952
(dp1953
g4
V18.563226
p1954
sg6
V73.813331
p1955
ssVTilak Bag
p1956
(dp1957
g4
V18.5204303
p1958
sg6
V73.8567437
p1959
ssVKondhava Shala
p1960
(dp1961
g4
V18.5229255
p1962
sg6
V73.8677464
p1963
ssVRajiv Gandhi Nagar Upper Depot
p1964
(dp1965
g4
V18.5204303
p1966
sg6
V73.8567437
p1967
ssVTulashi chemikals
p1968
(dp1969
g4
V18.5204303
p1970
sg6
V73.8567437
p1971
ssVNehrunagar corner
p1972
(dp1973
g4
V18.628963
p1974
sg6
V73.819338
p1975
ssVWagholi
p1976
(dp1977
g4
V18.6532361
p1978
sg6
V73.908793
p1979
ssVMhalasakant chauk
p1980
(dp1981
g4
V18.6497062
p1982
sg6
V73.7778363
p1983
ssVBhandari nivas
p1984
(dp1985
g4
V18.6165282
p1986
sg6
V73.8742054
p1987
ssVKhadakwasla Dharan Stores
p1988
(dp1989
g4
V18.5204303
p1990
sg6
V73.8567437
p1991
ssVPhulenagar Bhosari
p1992
(dp1993
g4
V18.622388
p1994
sg6
V73.8238945
p1995
ssVWadache Jhad Bhairavnath Mandir
p1996
(dp1997
g4
V18.5204303
p1998
sg6
V73.8567437
p1999
ssVMilitary Stores
p2000
(dp2001
g4
V18.5169994
p2002
sg6
V73.8580788
p2003
ssVShivshakti Mandir
p2004
(dp2005
g4
V18.5204303
p2006
sg6
V73.8567437
p2007
ssVAgalambe Gaon
p2008
(dp2009
g4
V18.43151
p2010
sg6
V73.717793
p2011
ssVPhulenagar bhosari
p2012
(dp2013
g4
V18.622388
p2014
sg6
V73.8238945
p2015
ssVBig India
p2016
(dp2017
g4
V18.656994
p2018
sg6
V73.765219
p2019
ssVBagal Vasti
p2020
(dp2021
g4
V18.5204303
p2022
sg6
V73.8567437
p2023
ssVGopal Patti
p2024
(dp2025
g4
V18.51238
p2026
sg6
V73.967988
p2027
ssVKalewadi 
p2028
(dp2029
g4
V18.6150264
p2030
sg6
V73.7933809
p2031
ssVTalegaon station
p2032
(dp2033
g4
V18.732173
p2034
sg6
V73.669647
p2035
ssVDattanagar Katraj
p2036
(dp2037
g4
V18.4460037
p2038
sg6
V73.8353326
p2039
ssVBharti Jain Sanghatna College
p2040
(dp2041
g4
V18.5204303
p2042
sg6
V73.8567437
p2043
ssVMhalunge corner
p2044
(dp2045
g4
V18.5204303
p2046
sg6
V73.8567437
p2047
ssVBafna Industries
p2048
(dp2049
g4
V18.5204303
p2050
sg6
V73.8567437
p2051
ssVVishkar India company
p2052
(dp2053
g4
V18.5204303
p2054
sg6
V73.8567437
p2055
ssVGorhe khurd
p2056
(dp2057
g4
V18.4083034
p2058
sg6
V73.7507276
p2059
ssVMayur Mangal Karyalaya
p2060
(dp2061
g4
V18.5065589
p2062
sg6
V73.8452169
p2063
ssVMahila Mandal
p2064
(dp2065
g4
V18.504407
p2066
sg6
V73.850632
p2067
ssVTendulkar wasti
p2068
(dp2069
g4
V18.5204303
p2070
sg6
V73.8567437
p2071
ssVPimpri Saandas
p2072
(dp2073
g4
V18.6095724
p2074
sg6
V74.1284003
p2075
ssVMamledar kacheri
p2076
(dp2077
g4
V18.506757
p2078
sg6
V73.858026
p2079
ssVShivnarwadi
p2080
(dp2081
g4
V18.5204303
p2082
sg6
V73.8567437
p2083
ssVBhushan Soc
p2084
(dp2085
g4
V18.4489072
p2086
sg6
V73.8642681
p2087
ssVKanda Lasoon Sanshodhan Kendra
p2088
(dp2089
g4
V18.5204303
p2090
sg6
V73.8567437
p2091
ssVCouncil Hall
p2092
(dp2093
g4
V18.525395
p2094
sg6
V73.878866
p2095
ssVNursery
p2096
(dp2097
g4
V18.5647832
p2098
sg6
V73.7799042
p2099
ssVNCL
p2100
(dp2101
g4
V18.5414875
p2102
sg6
V73.8106594
p2103
ssVGanga Dham
p2104
(dp2105
g4
V18.47728
p2106
sg6
V73.873785
p2107
ssVYamuna Nagar
p2108
(dp2109
g4
V18.6667547
p2110
sg6
V73.7838215
p2111
ssVUrali Kanchan
p2112
(dp2113
g4
V18.4833333
p2114
sg6
V74.1333333
p2115
ssVDivegaon phata 
p2116
(dp2117
g4
V18.383438
p2118
sg6
V74.015624
p2119
ssVPanyachi taki
p2120
(dp2121
g4
V18.575289
p2122
sg6
V73.814975
p2123
ssVOfficers mess
p2124
(dp2125
g4
V18.590694
p2126
sg6
V73.91543
p2127
ssVBlue Diamond hotel
p2128
(dp2129
g4
V18.5204303
p2130
sg6
V73.8567437
p2131
ssVMatchwel company
p2132
(dp2133
g4
V18.5204303
p2134
sg6
V73.8567437
p2135
ssVJambhul Wadi
p2136
(dp2137
g4
V18.4268492
p2138
sg6
V73.8397009
p2139
ssVElectronic Sadan
p2140
(dp2141
g4
V18.5204303
p2142
sg6
V73.8567437
p2143
ssVKasaba Police Chowky
p2144
(dp2145
g4
V18.519784
p2146
sg6
V73.856201
p2147
ssVMunjaba Vasti
p2148
(dp2149
g4
V18.587177
p2150
sg6
V73.8968506
p2151
ssVSanjay park
p2152
(dp2153
g4
V18.5707263
p2154
sg6
V73.9043836
p2155
ssVJakatnaka pavanapul
p2156
(dp2157
g4
V18.5204303
p2158
sg6
V73.8567437
p2159
ssVNCL market
p2160
(dp2161
g4
V18.539926
p2162
sg6
V73.816823
p2163
ssVChukate wasti
p2164
(dp2165
g4
V18.5204303
p2166
sg6
V73.8567437
p2167
ssVDhavde Vasti
p2168
(dp2169
g4
V18.5542406
p2170
sg6
V73.935911
p2171
ssVTapodham
p2172
(dp2173
g4
V18.482217
p2174
sg6
V73.80789
p2175
ssVKhadki church stop
p2176
(dp2177
g4
V18.558521
p2178
sg6
V73.845195
p2179
ssVDhumal Tali
p2180
(dp2181
g4
V18.433698
p2182
sg6
V73.747358
p2183
ssVShantiban
p2184
(dp2185
g4
V18.401176
p2186
sg6
V73.721465
p2187
ssVPerne Gaon
p2188
(dp2189
g4
V18.5204303
p2190
sg6
V73.8567437
p2191
ssVPacharne wasti
p2192
(dp2193
g4
V18.5204303
p2194
sg6
V73.8567437
p2195
ssVMaharashtra Chowk
p2196
(dp2197
g4
V18.5111468
p2198
sg6
V73.8371508
p2199
ssVMalwadi Naygaon 
p2200
(dp2201
g4
V18.4909003
p2202
sg6
V74.1017673
p2203
ssVBirla Hospital
p2204
(dp2205
g4
V18.62579
p2206
sg6
V73.774995
p2207
ssVNavlakha Godown 
p2208
(dp2209
g4
V18.5204303
p2210
sg6
V73.8567437
p2211
ssVJayprakash Stand Pune station
p2212
(dp2213
g4
V18.5287538
p2214
sg6
V73.8731475
p2215
ssVHirabag
p2216
(dp2217
g4
V18.504506
p2218
sg6
V73.854814
p2219
ssVShivaji putala dapodi
p2220
(dp2221
g4
V18.576109
p2222
sg6
V73.830723
p2223
ssVKhadaki church stop
p2224
(dp2225
g4
V18.558521
p2226
sg6
V73.845195
p2227
ssVTalwade
p2228
(dp2229
g4
V18.7150999
p2230
sg6
V73.7360175
p2231
ssVMilletory Depo Mitti Ghar
p2232
(dp2233
g4
V18.518932
p2234
sg6
V73.882399
p2235
ssVRakshak Soc.
p2236
(dp2237
g4
V18.557949
p2238
sg6
V73.896087
p2239
ssVSheti mahamandal
p2240
(dp2241
g4
V18.5204303
p2242
sg6
V73.8567437
p2243
ssVStadium NDA
p2244
(dp2245
g4
V18.4595744
p2246
sg6
V73.7610241
p2247
ssVSuncity
p2248
(dp2249
g4
V18.4755434
p2250
sg6
V73.8137402
p2251
ssVBhairoba Mandir Nasarapur
p2252
(dp2253
g4
V18.250726
p2254
sg6
V73.880518
p2255
ssVShitole wasti Soos
p2256
(dp2257
g4
V18.5204303
p2258
sg6
V73.8567437
p2259
ssVOval vasti
p2260
(dp2261
g4
V18.347754
p2262
sg6
V73.850063
p2263
ssVKalubai Jog Mandir
p2264
(dp2265
g4
V18.5204303
p2266
sg6
V73.8567437
p2267
ssVTarawade wasti
p2268
(dp2269
g4
V18.5204303
p2270
sg6
V73.8567437
p2271
ssVPetrol Pump Khadki
p2272
(dp2273
g4
V18.5667
p2274
sg6
V73.8667
p2275
ssVWadgao sheri
p2276
(dp2277
g4
V18.5535156
p2278
sg6
V73.9301037
p2279
ssVPatil colony
p2280
(dp2281
g4
V18.5106215
p2282
sg6
V73.8525331
p2283
ssVMukund shobha udyan dattamandir
p2284
(dp2285
g4
V18.5204303
p2286
sg6
V73.8567437
p2287
ssVPanyachi Taki Karandi
p2288
(dp2289
g4
V18.7277511
p2290
sg6
V74.0608558
p2291
ssVMariaai Gate Old Mumbai Pune Road
p2292
(dp2293
g4
V18.542177
p2294
sg6
V73.851737
p2295
ssVNIV
p2296
(dp2297
g4
V18.543294
p2298
sg6
V73.788019
p2299
ssVM M shala
p2300
(dp2301
g4
V18.526415
p2302
sg6
V73.826976
p2303
ssVBajaj showroom
p2304
(dp2305
g4
V18.539814
p2306
sg6
V73.850922
p2307
ssVKhandoba Mandir
p2308
(dp2309
g4
V18.453876
p2310
sg6
V73.873541
p2311
ssVPachawadw
p2312
(dp2313
g4
V18.5204303
p2314
sg6
V73.8567437
p2315
ssVDapodi
p2316
(dp2317
g4
V18.583816
p2318
sg6
V73.8316141
p2319
ssVE square
p2320
(dp2321
g4
V18.537936
p2322
sg6
V73.834618
p2323
ssVJai bhavani 
p2324
(dp2325
g4
V18.509391
p2326
sg6
V73.811764
p2327
ssVLonkar Wasti
p2328
(dp2329
g4
V18.527644
p2330
sg6
V73.949798
p2331
ssVVitthal Mandir Karvenagar
p2332
(dp2333
g4
V18.509184
p2334
sg6
V73.8460939
p2335
ssVKendriya Vidyalaya
p2336
(dp2337
g4
V18.4701033
p2338
sg6
V73.7641497
p2339
ssVVitthalwadi mandir hingne
p2340
(dp2341
g4
V18.5204303
p2342
sg6
V73.8567437
p2343
ssVChavan mala
p2344
(dp2345
g4
V18.4673041
p2346
sg6
V73.8330844
p2347
ssVNEI Company
p2348
(dp2349
g4
V18.5204303
p2350
sg6
V73.8567437
p2351
ssVWadia college
p2352
(dp2353
g4
V18.5334387
p2354
sg6
V73.880002
p2355
ssVJayanand Khira
p2356
(dp2357
g4
V18.5204303
p2358
sg6
V73.8567437
p2359
ssVKhadaki bajar
p2360
(dp2361
g4
V18.5667
p2362
sg6
V73.8667
p2363
ssVManik colony
p2364
(dp2365
g4
V18.6285832
p2366
sg6
V73.7878659
p2367
ssVAgakhan palace
p2368
(dp2369
g4
V18.554026
p2370
sg6
V73.901998
p2371
ssVTalegaon Khind
p2372
(dp2373
g4
V18.5204303
p2374
sg6
V73.8567437
p2375
ssVNEI company
p2376
(dp2377
g4
V18.5204303
p2378
sg6
V73.8567437
p2379
ssVJagtap chauk 
p2380
(dp2381
g4
V18.492024
p2382
sg6
V73.900162
p2383
ssVTajane Vasti
p2384
(dp2385
g4
V18.5204303
p2386
sg6
V73.8567437
p2387
ssVPower house
p2388
(dp2389
g4
V18.564725
p2390
sg6
V73.850712
p2391
ssVNDA Gate No 10
p2392
(dp2393
g4
V18.454558
p2394
sg6
V73.766925
p2395
ssVThiite Vasti  KaluBai Mandir 
p2396
(dp2397
g4
V18.5204303
p2398
sg6
V73.8567437
p2399
ssVShatri chauk
p2400
(dp2401
g4
V18.513673
p2402
sg6
V73.859569
p2403
ssVUttamanagar
p2404
(dp2405
g4
V18.460409
p2406
sg6
V73.772238
p2407
ssVThakur Wasti
p2408
(dp2409
g4
V18.666096
p2410
sg6
V73.935942
p2411
ssVSathe Biscuit company
p2412
(dp2413
g4
V18.570635
p2414
sg6
V73.879023
p2415
ssVTadi Gupta Wanaspati Sanshodhan Kendra
p2416
(dp2417
g4
V18.5204303
p2418
sg6
V73.8567437
p2419
ssVWarje Malwadi
p2420
(dp2421
g4
V18.474689
p2422
sg6
V73.8022046
p2423
ssVKirloskar company
p2424
(dp2425
g4
V18.5204303
p2426
sg6
V73.8567437
p2427
ssVAmarjai Begdewadi phata
p2428
(dp2429
g4
V18.5204303
p2430
sg6
V73.8567437
p2431
ssVBhapkar petrol pump City Pride
p2432
(dp2433
g4
V18.48971
p2434
sg6
V73.857638
p2435
ssVMukbadhir Shala
p2436
(dp2437
g4
V18.659358
p2438
sg6
V73.764899
p2439
ssVChikhali
p2440
(dp2441
g4
V18.6804895
p2442
sg6
V73.800734
p2443
ssVUrse Phata
p2444
(dp2445
g4
V18.5204303
p2446
sg6
V73.8567437
p2447
ssVShastrinagar 
p2448
(dp2449
g4
V18.5551525
p2450
sg6
V73.8992392
p2451
ssVKachare Wasti
p2452
(dp2453
g4
V18.533485
p2454
sg6
V73.920663
p2455
ssVGokhale mala sankalp garden
p2456
(dp2457
g4
V18.5204303
p2458
sg6
V73.8567437
p2459
ssVBavdhan goan
p2460
(dp2461
g4
V18.517183
p2462
sg6
V73.780905
p2463
ssVSutarwadi
p2464
(dp2465
g4
V18.5398982
p2466
sg6
V73.7823508
p2467
ssVKunjirwadi
p2468
(dp2469
g4
V18.4850053
p2470
sg6
V74.0711359
p2471
ssVHA Factory D Y Patil college
p2472
(dp2473
g4
V18.5204303
p2474
sg6
V73.8567437
p2475
ssVJyotiba Nagar
p2476
(dp2477
g4
V18.6126118
p2478
sg6
V73.7863952
p2479
ssVGulabnagar
p2480
(dp2481
g4
V18.4632408
p2482
sg6
V73.8520598
p2483
ssVSurya hopsital
p2484
(dp2485
g4
V18.52159
p2486
sg6
V73.855775
p2487
ssVShivshankar Chowk
p2488
(dp2489
g4
V18.5381935
p2490
sg6
V73.7812713
p2491
ssVSai Corner
p2492
(dp2493
g4
V18.5306416
p2494
sg6
V73.8397948
p2495
ssVChandan Nagar
p2496
(dp2497
g4
V18.5472058
p2498
sg6
V73.9403908
p2499
ssVNigadi jakat naka
p2500
(dp2501
g4
V18.631265
p2502
sg6
V73.777034
p2503
ssVRamnarayan Bungalow
p2504
(dp2505
g4
V18.5204303
p2506
sg6
V73.8567437
p2507
ssVSukhwani
p2508
(dp2509
g4
V18.5089845
p2510
sg6
V73.9320785
p2511
ssVJal shudhikaran kendra singhroad rd
p2512
(dp2513
g4
V18.497971
p2514
sg6
V73.84092
p2515
ssVChintamani Nagar
p2516
(dp2517
g4
V18.4665827
p2518
sg6
V73.8661646
p2519
ssVGreen Oaks Company
p2520
(dp2521
g4
V18.5204303
p2522
sg6
V73.8567437
p2523
ssVPingale wasti
p2524
(dp2525
g4
V18.530591
p2526
sg6
V73.910983
p2527
ssVAnand nagar
p2528
(dp2529
g4
V18.5067346
p2530
sg6
V73.8147042
p2531
ssVDate Engineering
p2532
(dp2533
g4
V18.5204303
p2534
sg6
V73.8567437
p2535
ssVBhadale Wasti Devachi Uruli 
p2536
(dp2537
g4
V18.4833333
p2538
sg6
V74.1333333
p2539
ssVMhalunge Gaon
p2540
(dp2541
g4
V18.574579
p2542
sg6
V73.755451
p2543
ssVshitole nagar corner
p2544
(dp2545
g4
V18.5204303
p2546
sg6
V73.8567437
p2547
ssVKedarinagar 
p2548
(dp2549
g4
V18.4989051
p2550
sg6
V73.9025463
p2551
ssVDairy Farm
p2552
(dp2553
g4
V18.620593
p2554
sg6
V73.76071
p2555
ssVPaduka mandir
p2556
(dp2557
g4
V18.5245052
p2558
sg6
V73.8414833
p2559
ssVMail Dagad Kramank 9
p2560
(dp2561
g4
V18.5204303
p2562
sg6
V73.8567437
p2563
ssVMail Dagad Kramank 8
p2564
(dp2565
g4
V18.506894
p2566
sg6
V73.783031
p2567
ssVDattanagar Chinchwad
p2568
(dp2569
g4
V18.617458
p2570
sg6
V73.873979
p2571
ssVShivregoan Phata
p2572
(dp2573
g4
V18.5204303
p2574
sg6
V73.8567437
p2575
ssVNehrunagar
p2576
(dp2577
g4
V18.6329328
p2578
sg6
V73.8209536
p2579
ssVSanghavi College
p2580
(dp2581
g4
V18.6462123
p2582
sg6
V73.8020208
p2583
ssVYadav Wasti Chaufula 
p2584
(dp2585
g4
V18.5204303
p2586
sg6
V73.8567437
p2587
ssVAlfa Laval Atlas Company
p2588
(dp2589
g4
V18.5204303
p2590
sg6
V73.8567437
p2591
ssVEklavya polytechnic College
p2592
(dp2593
g4
V18.5204303
p2594
sg6
V73.8567437
p2595
ssVAundh post office
p2596
(dp2597
g4
V18.5765991
p2598
sg6
V73.8044182
p2599
ssVSainathnagar Ashok Hotel 
p2600
(dp2601
g4
V18.5204303
p2602
sg6
V73.8567437
p2603
ssVAkurdi Police Chowky
p2604
(dp2605
g4
V18.660823
p2606
sg6
V73.775577
p2607
ssVPhulgaon phata
p2608
(dp2609
g4
V18.5204303
p2610
sg6
V73.8567437
p2611
ssVNandegaon
p2612
(dp2613
g4
V18.4503623
p2614
sg6
V73.7995397
p2615
ssVMangdewadi Phata
p2616
(dp2617
g4
V18.434486
p2618
sg6
V73.85976
p2619
ssVCollege of engineering pune
p2620
(dp2621
g4
V18.5277437
p2622
sg6
V73.8533007
p2623
ssVGrand Hotel
p2624
(dp2625
g4
V18.5204303
p2626
sg6
V73.8567437
p2627
ssVHarpale wasti Burkegaon
p2628
(dp2629
g4
V18.5204303
p2630
sg6
V73.8567437
p2631
ssVDhamale wasti Soos road
p2632
(dp2633
g4
V18.555866
p2634
sg6
V73.72032
p2635
ssVBalaji nagar
p2636
(dp2637
g4
V18.4646316
p2638
sg6
V73.8602841
p2639
ssVHolkar Water Supply 
p2640
(dp2641
g4
V18.5204303
p2642
sg6
V73.8567437
p2643
ssVPune station
p2644
(dp2645
g4
V18.5287538
p2646
sg6
V73.8731475
p2647
ssVKothrud Stand
p2648
(dp2649
g4
V18.499756
p2650
sg6
V73.813639
p2651
ssVBahulgaon Phata
p2652
(dp2653
g4
V18.727068
p2654
sg6
V73.998232
p2655
ssVBhairavnagar pimple gurav
p2656
(dp2657
g4
V18.5867193
p2658
sg6
V73.8154394
p2659
ssVHari Hareshwar mandir
p2660
(dp2661
g4
V18.5204303
p2662
sg6
V73.8567437
p2663
ssVBhakti shakti depot
p2664
(dp2665
g4
V18.6653249
p2666
sg6
V73.7706765
p2667
ssVH A Factory
p2668
(dp2669
g4
V18.558521
p2670
sg6
V73.845195
p2671
ssVKalyani nagar
p2672
(dp2673
g4
V18.5481
p2674
sg6
V73.9033
p2675
ssVDhayari Gaon
p2676
(dp2677
g4
V18.447537
p2678
sg6
V73.810282
p2679
ssVKesari Wada
p2680
(dp2681
g4
V18.516228
p2682
sg6
V73.848865
p2683
ssVVaidwadi
p2684
(dp2685
g4
V18.5332247
p2686
sg6
V73.8253649
p2687
ssVkalasgaon
p2688
(dp2689
g4
V18.5204303
p2690
sg6
V73.8567437
p2691
ssVSukhsagar Nagar
p2692
(dp2693
g4
V18.4194658
p2694
sg6
V73.8517501
p2695
ssVVitthai mangal karyalaya
p2696
(dp2697
g4
V18.5204303
p2698
sg6
V73.8567437
p2699
ssVPathare Wasti 
p2700
(dp2701
g4
V18.5599259
p2702
sg6
V73.9334103
p2703
ssVIdrayani nagar corner
p2704
(dp2705
g4
V18.540509
p2706
sg6
V73.830538
p2707
ssVARDE bus stop
p2708
(dp2709
g4
V18.537925
p2710
sg6
V73.802251
p2711
ssVDeep Bungalow Chowk
p2712
(dp2713
g4
V18.5204303
p2714
sg6
V73.8567437
p2715
ssVSangrun
p2716
(dp2717
g4
V18.400575
p2718
sg6
V73.679059
p2719
ssVwadia bangala
p2720
(dp2721
g4
V18.549831
p2722
sg6
V73.893714
p2723
ssVSangamwadi gaon
p2724
(dp2725
g4
V18.5204303
p2726
sg6
V73.8567437
p2727
ssVRakshak Soc. Ganpati mandir
p2728
(dp2729
g4
V18.5623007
p2730
sg6
V73.8955291
p2731
ssVDhere bangala
p2732
(dp2733
g4
V18.5204303
p2734
sg6
V73.8567437
p2735
ssVCantonment jakat naka
p2736
(dp2737
g4
V18.571469
p2738
sg6
V73.838028
p2739
ssVGhotawale phata
p2740
(dp2741
g4
V18.512912
p2742
sg6
V73.677791
p2743
ssVKondhava dhavade
p2744
(dp2745
g4
V18.4574675
p2746
sg6
V73.7698492
p2747
ssVKunjir Wadi Goan 
p2748
(dp2749
g4
V18.5204303
p2750
sg6
V73.8567437
p2751
ssVShirole Petrol Pump
p2752
(dp2753
g4
V18.5204303
p2754
sg6
V73.8567437
p2755
ssVTingre nagar Shanti nagar
p2756
(dp2757
g4
V18.567113
p2758
sg6
V73.879489
p2759
ssVAhire wadi
p2760
(dp2761
g4
V18.549333
p2762
sg6
V73.8239307
p2763
ssVNanded Phata
p2764
(dp2765
g4
V18.454771
p2766
sg6
V73.796711
p2767
ssVShiroli Phata
p2768
(dp2769
g4
V18.828936
p2770
sg6
V73.876738
p2771
ssVGhule wasti
p2772
(dp2773
g4
V18.5095721
p2774
sg6
V73.9591266
p2775
ssVMurkute wasti
p2776
(dp2777
g4
V18.604093
p2778
sg6
V73.7292051
p2779
ssVDurvankur Lawns
p2780
(dp2781
g4
V18.5204303
p2782
sg6
V73.8567437
p2783
ssVI B P Pump
p2784
(dp2785
g4
V18.5343
p2786
sg6
V73.839673
p2787
ssVMoshi Phata Dehu Phata
p2788
(dp2789
g4
V18.5204303
p2790
sg6
V73.8567437
p2791
ssVRaut wasti 
p2792
(dp2793
g4
V18.456512
p2794
sg6
V73.960813
p2795
ssVYashwant Nagar Telco Road
p2796
(dp2797
g4
V18.5204303
p2798
sg6
V73.8567437
p2799
ssVJuna Jakat naka
p2800
(dp2801
g4
V18.662099
p2802
sg6
V73.848475
p2803
ssVKrishna bajar
p2804
(dp2805
g4
V18.581456
p2806
sg6
V73.815663
p2807
ssVMedical shop
p2808
(dp2809
g4
V18.5319063
p2810
sg6
V73.8765416
p2811
ssVSantoshnagar
p2812
(dp2813
g4
V18.4418674
p2814
sg6
V73.8551385
p2815
ssVGanesh Chowk
p2816
(dp2817
g4
V18.5111468
p2818
sg6
V73.8371508
p2819
ssVUruli Devachi
p2820
(dp2821
g4
V18.4549714
p2822
sg6
V73.9565551
p2823
ssVShivteerthnagar
p2824
(dp2825
g4
V18.6084294
p2826
sg6
V73.779777
p2827
ssVDhavade wasti
p2828
(dp2829
g4
V18.525017
p2830
sg6
V73.967346
p2831
ssVLakud Bajar
p2832
(dp2833
g4
V18.5204303
p2834
sg6
V73.8567437
p2835
ssVHinjewadi Police Station
p2836
(dp2837
g4
V18.600026
p2838
sg6
V73.763912
p2839
ssVAlpana Talkies
p2840
(dp2841
g4
V18.5204303
p2842
sg6
V73.8567437
p2843
ssVTheur phata
p2844
(dp2845
g4
V18.488674
p2846
sg6
V74.051714
p2847
ssVUruli Devachi Phata
p2848
(dp2849
g4
V18.5204303
p2850
sg6
V73.8567437
p2851
ssVSmashanbhumi Kondhava
p2852
(dp2853
g4
V18.5078689
p2854
sg6
V73.8400685
p2855
ssVMantri Niketan Dapodi
p2856
(dp2857
g4
V18.5801598
p2858
sg6
V73.8304653
p2859
ssVKarandigaon kaman
p2860
(dp2861
g4
V18.5204303
p2862
sg6
V73.8567437
p2863
ssVKohima Line
p2864
(dp2865
g4
V18.5204303
p2866
sg6
V73.8567437
p2867
ssVAmbedkar nagar
p2868
(dp2869
g4
V18.4599851
p2870
sg6
V73.8896849
p2871
ssVLawale wasti
p2872
(dp2873
g4
V18.528251
p2874
sg6
V73.703528
p2875
ssVGaikwad Wasti
p2876
(dp2877
g4
V18.53273
p2878
sg6
V73.91821
p2879
ssVKavadi rasta
p2880
(dp2881
g4
V18.5204303
p2882
sg6
V73.8567437
p2883
ssVBahulgaon
p2884
(dp2885
g4
V18.656031
p2886
sg6
V74.0153231
p2887
ssVNaygaon phata
p2888
(dp2889
g4
V18.5204303
p2890
sg6
V73.8567437
p2891
ssVKhale banglaow
p2892
(dp2893
g4
V18.5204303
p2894
sg6
V73.8567437
p2895
ssVSubhash Vidyalaya
p2896
(dp2897
g4
V18.725428
p2898
sg6
V73.998793
p2899
ssVAditya garden city
p2900
(dp2901
g4
V18.4898951
p2902
sg6
V73.7867629
p2903
ssVCWPRS gate no.1
p2904
(dp2905
g4
V18.5204303
p2906
sg6
V73.8567437
p2907
ssVUrawade gaon
p2908
(dp2909
g4
V18.5204303
p2910
sg6
V73.8567437
p2911
ssVTulsi Chemical
p2912
(dp2913
g4
V18.507488
p2914
sg6
V73.8487136
p2915
ssVKachara Depot Undri 
p2916
(dp2917
g4
V18.463444
p2918
sg6
V73.9212858
p2919
ssVAmralewadi phata
p2920
(dp2921
g4
V18.603829
p2922
sg6
V73.776539
p2923
ssVChincholi Phata
p2924
(dp2925
g4
V18.733205
p2926
sg6
V73.974489
p2927
ssVCantonment Jakat Naka
p2928
(dp2929
g4
V18.571469
p2930
sg6
V73.838028
p2931
ssVSundarban
p2932
(dp2933
g4
V18.448964
p2934
sg6
V73.869846
p2935
ssVLipanewasti
p2936
(dp2937
g4
V18.5204303
p2938
sg6
V73.8567437
p2939
ssVIndiranagar 
p2940
(dp2941
g4
V18.4697673
p2942
sg6
V73.9319407
p2943
ssVMundhava Goan
p2944
(dp2945
g4
V18.532675
p2946
sg6
V73.932838
p2947
ssVDhayarai gaon
p2948
(dp2949
g4
V18.447537
p2950
sg6
V73.810282
p2951
ssVJalindre Bag 
p2952
(dp2953
g4
V18.5204303
p2954
sg6
V73.8567437
p2955
ssVCentral Restaurant
p2956
(dp2957
g4
V18.5204303
p2958
sg6
V73.8567437
p2959
ssVPrayagdham Hospital
p2960
(dp2961
g4
V18.5063383
p2962
sg6
V74.1088128
p2963
ssVAmbedkar vasahat
p2964
(dp2965
g4
V18.6720588
p2966
sg6
V73.7827185
p2967
ssVShagun chauk
p2968
(dp2969
g4
V18.5190432
p2970
sg6
V73.7773579
p2971
ssVShivajinagar Station
p2972
(dp2973
g4
V18.532448
p2974
sg6
V73.849456
p2975
ssVMoze Adhyapak Vidyalaya Yerwada
p2976
(dp2977
g4
V18.54515
p2978
sg6
V73.884236
p2979
ssVCentury Enka Colony 
p2980
(dp2981
g4
V18.6148921
p2982
sg6
V73.8472361
p2983
ssVJagtap Dairy Lonikand
p2984
(dp2985
g4
V18.616206
p2986
sg6
V74.019564
p2987
ssVPaduka Mandir
p2988
(dp2989
g4
V18.5245052
p2990
sg6
V73.8414833
p2991
ssVTukaramnagar
p2992
(dp2993
g4
V18.5529868
p2994
sg6
V73.9323081
p2995
ssVIngale colony
p2996
(dp2997
g4
V18.465671
p2998
sg6
V73.777036
p2999
ssVGrampanchayat Tingrenagar
p3000
(dp3001
g4
V18.5204303
p3002
sg6
V73.8567437
p3003
ssVMadhusanchay Society
p3004
(dp3005
g4
V18.5204303
p3006
sg6
V73.8567437
p3007
ssVBorate wasti
p3008
(dp3009
g4
V18.665352
p3010
sg6
V73.84863
p3011
ssVAhire gate phata
p3012
(dp3013
g4
V18.466865
p3014
sg6
V73.779361
p3015
ssVNana peth
p3016
(dp3017
g4
V18.5127916
p3018
sg6
V73.8676347
p3019
ssVSahitya Parishad Peru Gate
p3020
(dp3021
g4
V18.5204303
p3022
sg6
V73.8567437
p3023
ssVIAT Gate Girinagar
p3024
(dp3025
g4
V18.425764
p3026
sg6
V73.766311
p3027
ssVPadmji Paper Mill
p3028
(dp3029
g4
V18.5204303
p3030
sg6
V73.8567437
p3031
ssVMarkal Gaon
p3032
(dp3033
g4
V18.667683
p3034
sg6
V73.949866
p3035
ssVKonark Nagar Corner
p3036
(dp3037
g4
V18.5204303
p3038
sg6
V73.8567437
p3039
ssVShirke Company
p3040
(dp3041
g4
V18.528565
p3042
sg6
V73.906239
p3043
ssVSNZ chemical company
p3044
(dp3045
g4
V18.5204303
p3046
sg6
V73.8567437
p3047
ssVMaharashtra mandal
p3048
(dp3049
g4
V18.509646
p3050
sg6
V73.847399
p3051
ssVCOD office
p3052
(dp3053
g4
V18.5204303
p3054
sg6
V73.8567437
p3055
ssVDhayarigaon shala
p3056
(dp3057
g4
V18.5204303
p3058
sg6
V73.8567437
p3059
ssVDaulat Garden
p3060
(dp3061
g4
V18.503208
p3062
sg6
V73.760955
p3063
ssVBhairavnagar 
p3064
(dp3065
g4
V18.5821537
p3066
sg6
V73.886745
p3067
ssVBauddha Vasti
p3068
(dp3069
g4
V18.5204303
p3070
sg6
V73.8567437
p3071
ssVIndustrial Company
p3072
(dp3073
g4
V18.5204303
p3074
sg6
V73.8567437
p3075
ssVMedi point
p3076
(dp3077
g4
V18.565025
p3078
sg6
V73.802366
p3079
ssVWhite House
p3080
(dp3081
g4
V18.5072238
p3082
sg6
V73.8566097
p3083
ssVPoultry farm Indrayani dhaba
p3084
(dp3085
g4
V18.5204303
p3086
sg6
V73.8567437
p3087
ssVGokhalenagar shala
p3088
(dp3089
g4
V18.526415
p3090
sg6
V73.826976
p3091
ssVInamdar Wasti 
p3092
(dp3093
g4
V18.5204303
p3094
sg6
V73.8567437
p3095
ssVParamhans nagar
p3096
(dp3097
g4
V18.5083225
p3098
sg6
V73.8040428
p3099
ssVSpedor Country cluB Gate 2
p3100
(dp3101
g4
V18.5204303
p3102
sg6
V73.8567437
p3103
ssVRajaramPool
p3104
(dp3105
g4
V18.489225
p3106
sg6
V73.830747
p3107
ssVGarware college
p3108
(dp3109
g4
V18.512356
p3110
sg6
V73.838561
p3111
ssVWadhu Bu
p3112
(dp3113
g4
V18.5204303
p3114
sg6
V73.8567437
p3115
ssVBajaj showroom wakadewadi
p3116
(dp3117
g4
V18.539814
p3118
sg6
V73.850922
p3119
ssVN I B M Road
p3120
(dp3121
g4
V18.4702707
p3122
sg6
V73.9001742
p3123
ssVRadhika Soc
p3124
(dp3125
g4
V18.5204303
p3126
sg6
V73.8567437
p3127
ssVNerolac Paint Company
p3128
(dp3129
g4
V18.5204303
p3130
sg6
V73.8567437
p3131
ssVWaghere college 
p3132
(dp3133
g4
V18.3546681
p3134
sg6
V74.0258145
p3135
ssVNarayan peth police chowky
p3136
(dp3137
g4
V18.516141
p3138
sg6
V73.8479426
p3139
ssVRaysoni farm
p3140
(dp3141
g4
V18.5204303
p3142
sg6
V73.8567437
p3143
ssVFamily camp
p3144
(dp3145
g4
V18.523308
p3146
sg6
V73.88665
p3147
ssVRahatawade Gaon
p3148
(dp3149
g4
V18.5204303
p3150
sg6
V73.8567437
p3151
ssVShahu chauk
p3152
(dp3153
g4
V18.509029
p3154
sg6
V73.858027
p3155
ssVRajbhavan
p3156
(dp3157
g4
V18.5447449
p3158
sg6
V73.8253649
p3159
ssVMojhe Vidyalay
p3160
(dp3161
g4
V18.5204303
p3162
sg6
V73.8567437
p3163
ssVManik Bag
p3164
(dp3165
g4
V18.473263
p3166
sg6
V73.821563
p3167
ssVPoultry Farm Old Mumbai Pune Road
p3168
(dp3169
g4
V18.546806
p3170
sg6
V73.851656
p3171
ssVKukkut palan kendra
p3172
(dp3173
g4
V18.5204303
p3174
sg6
V73.8567437
p3175
ssVGokulnagar Katraj
p3176
(dp3177
g4
V18.4471901
p3178
sg6
V73.874985
p3179
ssVKasturba general hospital
p3180
(dp3181
g4
V18.5724541
p3182
sg6
V73.8813671
p3183
ssVRuby hall
p3184
(dp3185
g4
V18.533653
p3186
sg6
V73.877391
p3187
ssVRangehills Corner
p3188
(dp3189
g4
V18.5516908
p3190
sg6
V73.8415604
p3191
ssVBhapkar Petrol Pump City pride
p3192
(dp3193
g4
V18.48971
p3194
sg6
V73.857638
p3195
ssVSwargate
p3196
(dp3197
g4
V18.5004866
p3198
sg6
V73.8668996
p3199
ssVAundh gaon
p3200
(dp3201
g4
V18.5639463
p3202
sg6
V73.8102927
p3203
ssVKrushnamandir Corner
p3204
(dp3205
g4
V18.5204303
p3206
sg6
V73.8567437
p3207
ssVTheur factory
p3208
(dp3209
g4
V18.525271
p3210
sg6
V74.043897
p3211
ssVKSB Chowk
p3212
(dp3213
g4
V18.649634
p3214
sg6
V73.809226
p3215
ssVHeaven Park
p3216
(dp3217
g4
V18.4821866
p3218
sg6
V73.9132023
p3219
ssVMail Dagad Kramank 22
p3220
(dp3221
g4
V18.510945
p3222
sg6
V73.694872
p3223
ssVMail Dagad Kramank 23
p3224
(dp3225
g4
V18.5204303
p3226
sg6
V73.8567437
p3227
ssVAshram
p3228
(dp3229
g4
V18.498163
p3230
sg6
V73.714696
p3231
ssVDatta Mandir Marnewadi
p3232
(dp3233
g4
V18.5204303
p3234
sg6
V73.8567437
p3235
ssVKhadaki
p3236
(dp3237
g4
V18.5667
p3238
sg6
V73.8667
p3239
ssVMIDC bhosari
p3240
(dp3241
g4
V18.6388707
p3242
sg6
V73.7779386
p3243
ssVLakshi narayan theature
p3244
(dp3245
g4
V18.5204303
p3246
sg6
V73.8567437
p3247
ssVBahiratwadi 
p3248
(dp3249
g4
V18.535706
p3250
sg6
V73.8290409
p3251
ssVMohan Nagar
p3252
(dp3253
g4
V18.460262
p3254
sg6
V73.849149
p3255
ssVJadhavwadi phata
p3256
(dp3257
g4
V18.5204303
p3258
sg6
V73.8567437
p3259
ssVPandavnagar
p3260
(dp3261
g4
V18.543975
p3262
sg6
V73.782667
p3263
ssVJaykara bangalow
p3264
(dp3265
g4
V18.5204303
p3266
sg6
V73.8567437
p3267
ssVJambhulkar Chauk 
p3268
(dp3269
g4
V18.5204303
p3270
sg6
V73.8567437
p3271
ssVPashan Gate
p3272
(dp3273
g4
V18.5262695
p3274
sg6
V73.7882141
p3275
ssVSawant College
p3276
(dp3277
g4
V18.4723729
p3278
sg6
V73.9370843
p3279
ssVAshoka
p3280
(dp3281
g4
V18.651305
p3282
sg6
V73.77544
p3283
ssVKashiwadi 
p3284
(dp3285
g4
V18.507339
p3286
sg6
V73.871168
p3287
ssVR D colony
p3288
(dp3289
g4
V18.576733
p3290
sg6
V73.876631
p3291
ssVSindh Colony Gate2
p3292
(dp3293
g4
V18.5204303
p3294
sg6
V73.8567437
p3295
ssVTelco company
p3296
(dp3297
g4
V18.64461
p3298
sg6
V73.81856
p3299
ssVDeshmukh wasti
p3300
(dp3301
g4
V18.506844
p3302
sg6
V73.768379
p3303
ssVShinde farm
p3304
(dp3305
g4
V18.5204303
p3306
sg6
V73.8567437
p3307
ssVKasturi market
p3308
(dp3309
g4
V18.664136
p3310
sg6
V73.795072
p3311
ssVDidhi corner odha
p3312
(dp3313
g4
V18.5204303
p3314
sg6
V73.8567437
p3315
ssVLaxman nagar 
p3316
(dp3317
g4
V18.5687742
p3318
sg6
V73.7709523
p3319
ssVJivan Shikshan Mandir Wanjal Wadi
p3320
(dp3321
g4
V18.5204303
p3322
sg6
V73.8567437
p3323
ssVJagtap Dairy 
p3324
(dp3325
g4
V18.5751779
p3326
sg6
V73.7924355
p3327
ssVStage no.7
p3328
(dp3329
g4
V18.417774
p3330
sg6
V73.856749
p3331
ssVStage no.6
p3332
(dp3333
g4
V18.5204303
p3334
sg6
V73.8567437
p3335
ssVakate wasti
p3336
(dp3337
g4
V18.5894857
p3338
sg6
V73.895824
p3339
ssVShinde Wasti 
p3340
(dp3341
g4
V18.6216954
p3342
sg6
V73.9602287
p3343
ssVVimannagar Gate
p3344
(dp3345
g4
V18.5502413
p3346
sg6
V73.9186657
p3347
ssVMoshi phata chimboli phata
p3348
(dp3349
g4
V18.5204303
p3350
sg6
V73.8567437
p3351
ssVCentury Company
p3352
(dp3353
g4
V18.5602954
p3354
sg6
V73.8074237
p3355
ssVChakankar mala
p3356
(dp3357
g4
V18.5204303
p3358
sg6
V73.8567437
p3359
ssVRaviraj Hotel
p3360
(dp3361
g4
V18.5183409
p3362
sg6
V73.840436
p3363
ssVKatraj bus stand
p3364
(dp3365
g4
V18.481564
p3366
sg6
V73.857141
p3367
ssVRahatani phata
p3368
(dp3369
g4
V18.5980935
p3370
sg6
V73.7995844
p3371
ssVNatraj Society
p3372
(dp3373
g4
V18.494695
p3374
sg6
V73.824595
p3375
ssVChandani chauk
p3376
(dp3377
g4
V18.506527
p3378
sg6
V73.7794093
p3379
ssVShitaladevi Mandir 
p3380
(dp3381
g4
V18.5204303
p3382
sg6
V73.8567437
p3383
ssVSai lila nagar kate wasti
p3384
(dp3385
g4
V18.5204303
p3386
sg6
V73.8567437
p3387
ssVSarabatwala chowk
p3388
(dp3389
g4
V18.5204303
p3390
sg6
V73.8567437
p3391
ssVPolice line Gokhalenagar
p3392
(dp3393
g4
V18.526533
p3394
sg6
V73.843815
p3395
ssVWardade
p3396
(dp3397
g4
V18.385607
p3398
sg6
V73.698978
p3399
ssVSahitya parishad peru gate
p3400
(dp3401
g4
V18.5204303
p3402
sg6
V73.8567437
p3403
ssVInfosys company
p3404
(dp3405
g4
V18.5204303
p3406
sg6
V73.8567437
p3407
ssVDhayari phata
p3408
(dp3409
g4
V18.4484912
p3410
sg6
V73.8154394
p3411
ssVJai bhavani godown 
p3412
(dp3413
g4
V18.5204303
p3414
sg6
V73.8567437
p3415
ssVPhadake Houd
p3416
(dp3417
g4
V18.518901
p3418
sg6
V73.860125
p3419
ssVPegra gran company
p3420
(dp3421
g4
V18.5204303
p3422
sg6
V73.8567437
p3423
ssVKasture chowk
p3424
(dp3425
g4
V18.510681
p3426
sg6
V73.862069
p3427
ssVRace course
p3428
(dp3429
g4
V18.5102464
p3430
sg6
V73.893373
p3431
ssVBombay Garage
p3432
(dp3433
g4
V18.513113
p3434
sg6
V73.879872
p3435
ssVSatva high school
p3436
(dp3437
g4
V18.5204303
p3438
sg6
V73.8567437
p3439
ssVThermax
p3440
(dp3441
g4
V18.6592923
p3442
sg6
V73.7950158
p3443
ssVMula road bhaiyawadi
p3444
(dp3445
g4
V18.552049
p3446
sg6
V73.856389
p3447
ssVPingle Wasti
p3448
(dp3449
g4
V18.5204303
p3450
sg6
V73.8567437
p3451
ssVChafekar chauk
p3452
(dp3453
g4
V18.629408
p3454
sg6
V73.781232
p3455
ssVShivneri Poultry Farm
p3456
(dp3457
g4
V18.5204303
p3458
sg6
V73.8567437
p3459
ssVMalatwadi
p3460
(dp3461
g4
V18.5204303
p3462
sg6
V73.8567437
p3463
ssVPune University Gate
p3464
(dp3465
g4
V18.541962
p3466
sg6
V73.829295
p3467
ssVMalwadi Dehu
p3468
(dp3469
g4
V18.711513
p3470
sg6
V73.760995
p3471
ssVAlka talkies 
p3472
(dp3473
g4
V18.512564
p3474
sg6
V73.843912
p3475
ssVShivar Chowk
p3476
(dp3477
g4
V18.595468
p3478
sg6
V73.788428
p3479
ssVLIC Colony Khadki
p3480
(dp3481
g4
V18.562315
p3482
sg6
V73.833407
p3483
ssVSaint Janabai hostel
p3484
(dp3485
g4
V18.5204303
p3486
sg6
V73.8567437
p3487
ssVPhulenagar
p3488
(dp3489
g4
V18.5587288
p3490
sg6
V73.8782926
p3491
ssVJayanand khira
p3492
(dp3493
g4
V18.5204303
p3494
sg6
V73.8567437
p3495
ssVWaki Khurda
p3496
(dp3497
g4
V18.5204303
p3498
sg6
V73.8567437
p3499
ssVAutadewadi Phata
p3500
(dp3501
g4
V18.5204303
p3502
sg6
V73.8567437
p3503
ssVYashwant nagar telco road
p3504
(dp3505
g4
V18.5204303
p3506
sg6
V73.8567437
p3507
ssVE Square
p3508
(dp3509
g4
V18.537936
p3510
sg6
V73.834618
p3511
ssVHDFC corner
p3512
(dp3513
g4
V18.5204303
p3514
sg6
V73.8567437
p3515
ssVPower house theur
p3516
(dp3517
g4
V18.51942
p3518
sg6
V74.046046
p3519
ssVMehendale garage
p3520
(dp3521
g4
V18.5204303
p3522
sg6
V73.8567437
p3523
ssVTalegaon nagar parishad
p3524
(dp3525
g4
V18.5204303
p3526
sg6
V73.8567437
p3527
ssVDattawadi pul
p3528
(dp3529
g4
V18.503691
p3530
sg6
V73.838893
p3531
ssVKothrud depot
p3532
(dp3533
g4
V18.506696
p3534
sg6
V73.795338
p3535
ssVDharmaraj Mangal Karyalaya Ravet
p3536
(dp3537
g4
V18.6496322
p3538
sg6
V73.7448437
p3539
ssVjuna pul gate
p3540
(dp3541
g4
V18.50801
p3542
sg6
V73.879397
p3543
ssVDehuroad bajar
p3544
(dp3545
g4
V18.5204303
p3546
sg6
V73.8567437
p3547
ssVChinchwade Nagar Corner Chinchwad Road
p3548
(dp3549
g4
V18.5204303
p3550
sg6
V73.8567437
p3551
ssVGavane Vasti 
p3552
(dp3553
g4
V18.62052
p3554
sg6
V73.849723
p3555
ssVBagade wasti 
p3556
(dp3557
g4
V18.5204303
p3558
sg6
V73.8567437
p3559
ssVMalwadi Kunjir 
p3560
(dp3561
g4
V18.5204303
p3562
sg6
V73.8567437
p3563
ssVWadkar mala 
p3564
(dp3565
g4
V18.5204303
p3566
sg6
V73.8567437
p3567
ssVPashan
p3568
(dp3569
g4
V18.5390917
p3570
sg6
V73.7977928
p3571
ssVPrekshagruha
p3572
(dp3573
g4
V18.5204303
p3574
sg6
V73.8567437
p3575
ssVVenutai College
p3576
(dp3577
g4
V18.468494
p3578
sg6
V73.831616
p3579
ssVMail Dagad Kramank 18
p3580
(dp3581
g4
V18.5204303
p3582
sg6
V73.8567437
p3583
ssVSwapna nagari
p3584
(dp3585
g4
V18.6352353
p3586
sg6
V73.8195956
p3587
ssVRajmudra Soc
p3588
(dp3589
g4
V18.5204303
p3590
sg6
V73.8567437
p3591
ssVInsureance company
p3592
(dp3593
g4
V18.5204303
p3594
sg6
V73.8567437
p3595
ssVN T wadi
p3596
(dp3597
g4
V18.5332548
p3598
sg6
V73.8463172
p3599
ssVMilitary Hospital
p3600
(dp3601
g4
V18.501818
p3602
sg6
V73.890818
p3603
ssVVanaz Corner
p3604
(dp3605
g4
V18.50766
p3606
sg6
V73.808069
p3607
ssVZero Boys
p3608
(dp3609
g4
V18.50527
p3610
sg6
V73.8746667
p3611
ssVB Sub Depot
p3612
(dp3613
g4
V18.5204303
p3614
sg6
V73.8567437
p3615
ssVVaiduvasti
p3616
(dp3617
g4
V18.5332247
p3618
sg6
V73.8253649
p3619
ssVBhosari Police Station 
p3620
(dp3621
g4
V18.617412
p3622
sg6
V73.825929
p3623
ssVApolo Talkies
p3624
(dp3625
g4
V18.519584
p3626
sg6
V73.865154
p3627
ssVBavdhan gaon
p3628
(dp3629
g4
V18.4462164
p3630
sg6
V73.8256423
p3631
ssVChinchwad station
p3632
(dp3633
g4
V18.656994
p3634
sg6
V73.765219
p3635
ssVMahamdwadi Gaon
p3636
(dp3637
g4
V18.5204303
p3638
sg6
V73.8567437
p3639
ssVGaimukh Ambegaon Phata
p3640
(dp3641
g4
V18.5204303
p3642
sg6
V73.8567437
p3643
ssVBhagwat wasti
p3644
(dp3645
g4
V18.5291664
p3646
sg6
V73.83884
p3647
ssVMundhva Gaon
p3648
(dp3649
g4
V18.533802
p3650
sg6
V73.929892
p3651
ssVVidi Kamgar Vasahat Yerawada
p3652
(dp3653
g4
V18.5583214
p3654
sg6
V73.88601
p3655
ssVVishrambag wada
p3656
(dp3657
g4
V18.513657
p3658
sg6
V73.852659
p3659
ssVVishweshwar Bank KK market
p3660
(dp3661
g4
V18.468843
p3662
sg6
V73.857517
p3663
ssV512 Factory Gate 
p3664
(dp3665
g4
V18.5804032
p3666
sg6
V74.633697
p3667
ssVSantnagar Chowk Taware Colony
p3668
(dp3669
g4
V18.4868947
p3670
sg6
V73.855506
p3671
ssVSatavwadi
p3672
(dp3673
g4
V18.4953248
p3674
sg6
V73.9484731
p3675
ssVNal stop
p3676
(dp3677
g4
V18.509019
p3678
sg6
V73.831963
p3679
ssVAkashwani hadapasar
p3680
(dp3681
g4
V18.5309093
p3682
sg6
V73.8493495
p3683
ssVAnkur Bungalow
p3684
(dp3685
g4
V18.502158
p3686
sg6
V73.805332
p3687
ssVNewad wasti
p3688
(dp3689
g4
V18.5204303
p3690
sg6
V73.8567437
p3691
ssVKavadi pat
p3692
(dp3693
g4
V18.492034
p3694
sg6
V74.000583
p3695
ssVkothrud depot
p3696
(dp3697
g4
V18.506696
p3698
sg6
V73.795338
p3699
ssVKudale farm
p3700
(dp3701
g4
V18.5204303
p3702
sg6
V73.8567437
p3703
ssVPadmavati Bus stand
p3704
(dp3705
g4
V18.541845
p3706
sg6
V73.82766
p3707
ssVIITM
p3708
(dp3709
g4
V18.5362002
p3710
sg6
V73.805881
p3711
ssVSai chauk
p3712
(dp3713
g4
V18.543537
p3714
sg6
V73.784902
p3715
ssVTransport nagar
p3716
(dp3717
g4
V18.6653272
p3718
sg6
V73.767643
p3719
ssVArvi phata
p3720
(dp3721
g4
V18.5204303
p3722
sg6
V73.8567437
p3723
ssVPWD gate
p3724
(dp3725
g4
V18.5753534
p3726
sg6
V73.8147277
p3727
ssVSurya Kiran Khat Karkhana
p3728
(dp3729
g4
V18.5204303
p3730
sg6
V73.8567437
p3731
ssVDehuroad railway staion
p3732
(dp3733
g4
V18.6804696
p3734
sg6
V73.7342706
p3735
ssVPunavale
p3736
(dp3737
g4
V18.6368016
p3738
sg6
V73.7463147
p3739
ssVRamkrushna Mangal Karyalaya
p3740
(dp3741
g4
V18.5204303
p3742
sg6
V73.8567437
p3743
ssVRangehills H Type Quarters
p3744
(dp3745
g4
V18.544901
p3746
sg6
V73.839313
p3747
ssVUday Bag 
p3748
(dp3749
g4
V18.511795
p3750
sg6
V73.9058534
p3751
ssVSadhana Vidyalaya
p3752
(dp3753
g4
V18.505873
p3754
sg6
V73.938856
p3755
ssV40 Aundh Road
p3756
(dp3757
g4
V18.562405
p3758
sg6
V73.833546
p3759
ssVRaksha Lekha Society
p3760
(dp3761
g4
V18.498747
p3762
sg6
V73.838854
p3763
ssVWalhekarwadi
p3764
(dp3765
g4
V18.5204303
p3766
sg6
V73.8567437
p3767
ssVD Y Patil college Akrdi
p3768
(dp3769
g4
V18.6426993
p3770
sg6
V73.7783951
p3771
ssVMalyacha mala
p3772
(dp3773
g4
V18.5204303
p3774
sg6
V73.8567437
p3775
ssVDelux
p3776
(dp3777
g4
V18.619874
p3778
sg6
V73.801411
p3779
ssVChildrens School
p3780
(dp3781
g4
V18.5204303
p3782
sg6
V73.8567437
p3783
ssVShanipar
p3784
(dp3785
g4
V18.512798
p3786
sg6
V73.852933
p3787
ssVRamnagar Katraj
p3788
(dp3789
g4
V18.4585107
p3790
sg6
V73.8452604
p3791
ssVMitra sahkar nagar
p3792
(dp3793
g4
V18.487765
p3794
sg6
V73.8499576
p3795
ssVShinde Mundhava
p3796
(dp3797
g4
V18.5094678
p3798
sg6
V73.930765
p3799
ssVNandoshi Limbache Zad
p3800
(dp3801
g4
V18.5204303
p3802
sg6
V73.8567437
p3803
ssVKudje Stand
p3804
(dp3805
g4
V18.5204303
p3806
sg6
V73.8567437
p3807
ssVMedical Stores
p3808
(dp3809
g4
V18.509219
p3810
sg6
V73.8126909
p3811
ssVKunjir vihir
p3812
(dp3813
g4
V19.4062635
p3814
sg6
V73.8496252
p3815
ssVKumbhar Wada
p3816
(dp3817
g4
V18.536592
p3818
sg6
V73.9425951
p3819
ssVParanjpe scheme
p3820
(dp3821
g4
V18.5138284
p3822
sg6
V73.8335899
p3823
ssVIncome tax office
p3824
(dp3825
g4
V18.525762
p3826
sg6
V73.876606
p3827
ssVRaghuveer Nagar
p3828
(dp3829
g4
V18.551136
p3830
sg6
V73.928983
p3831
ssVTulapur
p3832
(dp3833
g4
V18.6694438
p3834
sg6
V73.9954909
p3835
ssVMaruti mandir karve road
p3836
(dp3837
g4
V18.503754
p3838
sg6
V73.820291
p3839
ssVQueen Mary Technical
p3840
(dp3841
g4
V18.5204303
p3842
sg6
V73.8567437
p3843
ssVVasundara Lawns
p3844
(dp3845
g4
V18.5204303
p3846
sg6
V73.8567437
p3847
ssVKedari corner 
p3848
(dp3849
g4
V18.489398
p3850
sg6
V73.899963
p3851
ssVKondhava Dhavde
p3852
(dp3853
g4
V18.4574675
p3854
sg6
V73.7698492
p3855
ssVBharat English school
p3856
(dp3857
g4
V18.5316136
p3858
sg6
V73.8490277
p3859
ssVRajsthan Hostel
p3860
(dp3861
g4
V18.5204303
p3862
sg6
V73.8567437
p3863
ssVChaudhari wasti
p3864
(dp3865
g4
V18.4857425
p3866
sg6
V74.1217938
p3867
ssVSymbiosis college phata Soos
p3868
(dp3869
g4
V18.5204303
p3870
sg6
V73.8567437
p3871
ssVDeccan Corner Sambhaji Pul Corner
p3872
(dp3873
g4
V18.513793
p3874
sg6
V73.841438
p3875
ssVFugewadi
p3876
(dp3877
g4
V18.586909
p3878
sg6
V73.833146
p3879
ssVKhadaki post office
p3880
(dp3881
g4
V18.555834
p3882
sg6
V73.847379
p3883
ssVCentral School NDA
p3884
(dp3885
g4
V18.4595744
p3886
sg6
V73.7610241
p3887
ssVPimple gurav
p3888
(dp3889
g4
V18.5867193
p3890
sg6
V73.8154394
p3891
ssVAmunition Factory Road
p3892
(dp3893
g4
V18.5204303
p3894
sg6
V73.8567437
p3895
ssVMount Convent School
p3896
(dp3897
g4
V18.4821147
p3898
sg6
V73.8874799
p3899
ssVSutardara
p3900
(dp3901
g4
V18.5167978
p3902
sg6
V73.8079434
p3903
ssVGol Market NDA
p3904
(dp3905
g4
V18.4595744
p3906
sg6
V73.7610241
p3907
ssVNIBM Road
p3908
(dp3909
g4
V18.4702707
p3910
sg6
V73.9001742
p3911
ssVGanjwewadi 
p3912
(dp3913
g4
V18.5925785
p3914
sg6
V73.7183639
p3915
ssVKate Wasti
p3916
(dp3917
g4
V18.5894857
p3918
sg6
V73.895824
p3919
ssVLabor office
p3920
(dp3921
g4
V18.534854
p3922
sg6
V73.851396
p3923
ssVAlka talkies
p3924
(dp3925
g4
V18.512564
p3926
sg6
V73.843912
p3927
ssVAzadnagar Charholi
p3928
(dp3929
g4
V18.5204303
p3930
sg6
V73.8567437
p3931
ssVKhadki Police Station
p3932
(dp3933
g4
V18.5571993
p3934
sg6
V73.8453063
p3935
ssVSindhunagar Corner
p3936
(dp3937
g4
V18.5204303
p3938
sg6
V73.8567437
p3939
ssVGiriraj Corner
p3940
(dp3941
g4
V18.5204303
p3942
sg6
V73.8567437
p3943
ssVIngale Colony
p3944
(dp3945
g4
V18.465671
p3946
sg6
V73.777036
p3947
ssVPumping station
p3948
(dp3949
g4
V18.5343
p3950
sg6
V73.839673
p3951
ssVTathwade
p3952
(dp3953
g4
V18.6289
p3954
sg6
V73.7481
p3955
ssVFinolex
p3956
(dp3957
g4
V18.629379
p3958
sg6
V73.802574
p3959
ssVDattanagar
p3960
(dp3961
g4
V18.4458118
p3962
sg6
V73.8466847
p3963
ssVPrasanna Bungalow
p3964
(dp3965
g4
V18.4677915
p3966
sg6
V73.8671293
p3967
ssVBhosari phata
p3968
(dp3969
g4
V18.634142
p3970
sg6
V73.874902
p3971
ssVPimpri  chauk Bus stand
p3972
(dp3973
g4
V18.559766
p3974
sg6
V73.815308
p3975
ssVShankar mandir
p3976
(dp3977
g4
V18.5120489
p3978
sg6
V73.8365189
p3979
ssVWakad Police Chowky
p3980
(dp3981
g4
V18.586534
p3982
sg6
V73.736266
p3983
ssVPhadake Haud
p3984
(dp3985
g4
V18.5204303
p3986
sg6
V73.8567437
p3987
ssVSatav wasti
p3988
(dp3989
g4
V18.497766
p3990
sg6
V73.941607
p3991
ssVMafco Company
p3992
(dp3993
g4
V18.489535
p3994
sg6
V73.86202
p3995
ssVAundh chest hospital
p3996
(dp3997
g4
V18.575085
p3998
sg6
V73.805075
p3999
ssVKEM hospital
p4000
(dp4001
g4
V18.520198
p4002
sg6
V73.86766
p4003
ssVBankar wasti moshi
p4004
(dp4005
g4
V18.671378
p4006
sg6
V73.848265
p4007
ssVRailway gate no.1 
p4008
(dp4009
g4
V18.5287449
p4010
sg6
V73.8966848
p4011
ssVLokmanya Hospital
p4012
(dp4013
g4
V18.6572813
p4014
sg6
V73.8002859
p4015
ssVPolice workshop
p4016
(dp4017
g4
V18.56133
p4018
sg6
V73.810066
p4019
ssVZila Parishad School
p4020
(dp4021
g4
V18.0749064
p4022
sg6
V74.5600592
p4023
ssVKhule Wadi
p4024
(dp4025
g4
V18.568438
p4026
sg6
V73.934176
p4027
ssVBopodi Jakat Naka
p4028
(dp4029
g4
V18.571469
p4030
sg6
V73.838028
p4031
ssVDattanagar Highway
p4032
(dp4033
g4
V18.4507053
p4034
sg6
V73.8580397
p4035
ssVFarashi Karkhana
p4036
(dp4037
g4
V18.531281
p4038
sg6
V73.914076
p4039
ssVSangvi goan
p4040
(dp4041
g4
V18.5639463
p4042
sg6
V73.8102927
p4043
ssVDeasi poultry farm
p4044
(dp4045
g4
V18.5204303
p4046
sg6
V73.8567437
p4047
ssVKalasgaon
p4048
(dp4049
g4
V18.5204303
p4050
sg6
V73.8567437
p4051
ssVKasturba School north lane
p4052
(dp4053
g4
V18.5399302
p4054
sg6
V73.8908792
p4055
ssVZila Parishad
p4056
(dp4057
g4
V18.523561
p4058
sg6
V73.870318
p4059
ssVModern Highschool
p4060
(dp4061
g4
V18.524763
p4062
sg6
V73.849404
p4063
ssVCentury company
p4064
(dp4065
g4
V18.5602954
p4066
sg6
V73.8074237
p4067
ssVVitthalwadi Mandir Sadesataranali
p4068
(dp4069
g4
V18.508202
p4070
sg6
V73.941246
p4071
ssVMarketyard
p4072
(dp4073
g4
V18.4868701
p4074
sg6
V73.8676347
p4075
ssVPaud Phata Dashabhuja Ganpati
p4076
(dp4077
g4
V18.5204303
p4078
sg6
V73.8567437
p4079
ssVVikasnagar
p4080
(dp4081
g4
V18.492424
p4082
sg6
V73.9025463
p4083
ssVWadmukhwadi
p4084
(dp4085
g4
V18.653948
p4086
sg6
V73.884116
p4087
ssVSutar Dawakhana
p4088
(dp4089
g4
V18.5036536
p4090
sg6
V73.8077652
p4091
ssVPimple saudagar chauk
p4092
(dp4093
g4
V18.6106899
p4094
sg6
V73.7990755
p4095
ssVBhilarewadi
p4096
(dp4097
g4
V18.4222218
p4098
sg6
V73.8610191
p4099
ssVISL Company
p4100
(dp4101
g4
V18.5204303
p4102
sg6
V73.8567437
p4103
ssVGanga Village
p4104
(dp4105
g4
V18.4828574
p4106
sg6
V73.9334103
p4107
ssVITI parihar Chauk
p4108
(dp4109
g4
V18.560268
p4110
sg6
V73.809202
p4111
ssVWest end talkies
p4112
(dp4113
g4
V18.518774
p4114
sg6
V73.878038
p4115
ssVSangam Metal Company
p4116
(dp4117
g4
V18.5204303
p4118
sg6
V73.8567437
p4119
ssVSai mandir
p4120
(dp4121
g4
V18.5823781
p4122
sg6
V73.8127709
p4123
ssVHandewadi gaon
p4124
(dp4125
g4
V18.4499531
p4126
sg6
V73.9234903
p4127
ssVMilitary Hospital Wanvadi 
p4128
(dp4129
g4
V18.501818
p4130
sg6
V73.890818
p4131
ssVManjri bu.
p4132
(dp4133
g4
V18.5204303
p4134
sg6
V73.8567437
p4135
ssVShindewadi Gujarwadi
p4136
(dp4137
g4
V18.5204303
p4138
sg6
V73.8567437
p4139
ssVMhasoba Chowk
p4140
(dp4141
g4
V18.5204303
p4142
sg6
V73.8567437
p4143
ssVKrushnanagar
p4144
(dp4145
g4
V18.5566876
p4146
sg6
V73.9168766
p4147
ssVKrushnamandir corner
p4148
(dp4149
g4
V18.5204303
p4150
sg6
V73.8567437
p4151
ssVBhimnagar
p4152
(dp4153
g4
V18.6691702
p4154
sg6
V73.8521981
p4155
ssVMaharashtra Housing Niljyoti
p4156
(dp4157
g4
V18.533155
p4158
sg6
V73.8211231
p4159
ssVPatil chauk
p4160
(dp4161
g4
V18.534799
p4162
sg6
V73.879601
p4163
ssVPatil Estate
p4164
(dp4165
g4
V18.4410707
p4166
sg6
V73.8237039
p4167
ssVMegarpatta City
p4168
(dp4169
g4
V18.5158057
p4170
sg6
V73.9271644
p4171
ssVLabour office
p4172
(dp4173
g4
V18.534854
p4174
sg6
V73.851396
p4175
ssVManaji nagar
p4176
(dp4177
g4
V18.4549502
p4178
sg6
V73.8255487
p4179
ssVRakshak chauk
p4180
(dp4181
g4
V18.5817878
p4182
sg6
V73.7976203
p4183
ssVRamchandra Mangal Karyalaya
p4184
(dp4185
g4
V18.5204303
p4186
sg6
V73.8567437
p4187
ssVAhire phata
p4188
(dp4189
g4
V18.466865
p4190
sg6
V73.779361
p4191
ssVVidyanagar Swapnaganga bangalow
p4192
(dp4193
g4
V18.5204303
p4194
sg6
V73.8567437
p4195
ssVCanbay Corner
p4196
(dp4197
g4
V18.5204303
p4198
sg6
V73.8567437
p4199
ssVJadhavwadi Andh shala
p4200
(dp4201
g4
V18.5204303
p4202
sg6
V73.8567437
p4203
ssVPratibhanagar
p4204
(dp4205
g4
V18.4934484
p4206
sg6
V73.9324727
p4207
ssVGogalwadi Phata
p4208
(dp4209
g4
V18.5204303
p4210
sg6
V73.8567437
p4211
ssVBharat Petrol Pump
p4212
(dp4213
g4
V18.496749
p4214
sg6
V73.968418
p4215
ssVTalegao Dhamdhere Bazar
p4216
(dp4217
g4
V18.5204303
p4218
sg6
V73.8567437
p4219
ssVShri Shatrunjay Jain Temple
p4220
(dp4221
g4
V18.4516009
p4222
sg6
V73.8781088
p4223
ssVMhaske wasti
p4224
(dp4225
g4
V18.5204303
p4226
sg6
V73.8567437
p4227
ssVShubham Hotel
p4228
(dp4229
g4
V18.5204303
p4230
sg6
V73.8567437
p4231
ssVSpicer college press
p4232
(dp4233
g4
V18.5204303
p4234
sg6
V73.8567437
p4235
ssVStage kramank 6
p4236
(dp4237
g4
V18.5204303
p4238
sg6
V73.8567437
p4239
ssVDandekar pul
p4240
(dp4241
g4
V18.5010461
p4242
sg6
V73.8485225
p4243
ssVSevak Vasaha
p4244
(dp4245
g4
V18.5204303
p4246
sg6
V73.8567437
p4247
ssVSamartha Vidyalaya Indrayani Nagar
p4248
(dp4249
g4
V18.466393
p4250
sg6
V73.9199998
p4251
ssVAshok Stambha
p4252
(dp4253
g4
V18.5204303
p4254
sg6
V73.8567437
p4255
ssVShrama Safalya
p4256
(dp4257
g4
V18.6447989
p4258
sg6
V73.7737101
p4259
ssVSasane Nagar
p4260
(dp4261
g4
V18.4945814
p4262
sg6
V73.9315733
p4263
ssVNurses Quarters
p4264
(dp4265
g4
V18.57507
p4266
sg6
V73.808405
p4267
ssVLink road
p4268
(dp4269
g4
V18.6142312
p4270
sg6
V73.7756244
p4271
ssVNav Sahyadri Sabhagruha
p4272
(dp4273
g4
V18.4954857
p4274
sg6
V73.8291328
p4275
ssVRTO wellesley road
p4276
(dp4277
g4
V18.529805
p4278
sg6
V73.862654
p4279
ssVGavalimatha
p4280
(dp4281
g4
V18.638099
p4282
sg6
V73.825105
p4283
ssVWarje gaon highway
p4284
(dp4285
g4
V18.480297
p4286
sg6
V73.805065
p4287
ssVVatare mala
p4288
(dp4289
g4
V18.524484
p4290
sg6
V73.906355
p4291
ssVPadmji Gate
p4292
(dp4293
g4
V18.5109463
p4294
sg6
V73.8747651
p4295
ssVRamkrushna rasayan karkhana
p4296
(dp4297
g4
V18.5204303
p4298
sg6
V73.8567437
p4299
ssVChaitanya nagar
p4300
(dp4301
g4
V18.4979807
p4302
sg6
V73.8051458
p4303
ssVYashwant Nagar
p4304
(dp4305
g4
V18.5402123
p4306
sg6
V73.8352899
p4307
ssVBoys batalian
p4308
(dp4309
g4
V18.560308
p4310
sg6
V73.815169
p4311
ssVGorhe Budruk
p4312
(dp4313
g4
V18.421399
p4314
sg6
V73.756846
p4315
ssVFarshi karkhana
p4316
(dp4317
g4
V18.531281
p4318
sg6
V73.914076
p4319
ssVAtma Anand Dhyan Kendra
p4320
(dp4321
g4
V18.5204303
p4322
sg6
V73.8567437
p4323
ssVGokhalenagar
p4324
(dp4325
g4
V18.5285768
p4326
sg6
V73.8257325
p4327
ssVSatav High School
p4328
(dp4329
g4
V18.580514
p4330
sg6
V73.977547
p4331
ssVPimple Nilakh Shala
p4332
(dp4333
g4
V18.5204303
p4334
sg6
V73.8567437
p4335
ssVBhikardas maruti madnir
p4336
(dp4337
g4
V18.508215
p4338
sg6
V73.853702
p4339
ssVSoos phata
p4340
(dp4341
g4
V18.5381935
p4342
sg6
V73.7812713
p4343
ssVBorkar wasti
p4344
(dp4345
g4
V18.488692
p4346
sg6
V74.045981
p4347
ssVLIC Colony Paud Road
p4348
(dp4349
g4
V18.510875
p4350
sg6
V73.818328
p4351
ssVYerwada
p4352
(dp4353
g4
V18.54515
p4354
sg6
V73.884236
p4355
ssVWakad Highway
p4356
(dp4357
g4
V18.592969
p4358
sg6
V73.756649
p4359
ssVChaudhari dhaba
p4360
(dp4361
g4
V18.5204303
p4362
sg6
V73.8567437
p4363
ssVPaudgoan
p4364
(dp4365
g4
V18.523109
p4366
sg6
V73.613664
p4367
ssVDhore Vasti
p4368
(dp4369
g4
V18.5204303
p4370
sg6
V73.8567437
p4371
ssVWadachi Wadi
p4372
(dp4373
g4
V18.436634
p4374
sg6
V73.918233
p4375
ssVDehugaon
p4376
(dp4377
g4
V18.6911825
p4378
sg6
V73.8005839
p4379
ssVPower house Padmavati
p4380
(dp4381
g4
V18.564725
p4382
sg6
V73.850712
p4383
ssVDnyaneshwar Paduka Wade Bolhai
p4384
(dp4385
g4
V18.5204303
p4386
sg6
V73.8567437
p4387
ssVShriman Society
p4388
(dp4389
g4
V18.5204303
p4390
sg6
V73.8567437
p4391
ssVMantar Wadi phata 
p4392
(dp4393
g4
V18.5204303
p4394
sg6
V73.8567437
p4395
ssVRaja bangalow
p4396
(dp4397
g4
V18.551905
p4398
sg6
V73.849493
p4399
ssVDongergaon Phata
p4400
(dp4401
g4
V18.623593
p4402
sg6
V74.073874
p4403
ssVLavale Phata
p4404
(dp4405
g4
V18.510205
p4406
sg6
V73.689359
p4407
ssVGajanan Nagar
p4408
(dp4409
g4
V18.457917
p4410
sg6
V73.877944
p4411
ssVTelco Colony
p4412
(dp4413
g4
V18.435711
p4414
sg6
V73.845259
p4415
ssVAmunition factory road
p4416
(dp4417
g4
V18.5204303
p4418
sg6
V73.8567437
p4419
ssVRam tekadi
p4420
(dp4421
g4
V18.5019303
p4422
sg6
V73.92496
p4423
ssVWadilal
p4424
(dp4425
g4
V18.5204303
p4426
sg6
V73.8567437
p4427
ssVCollector kacheri
p4428
(dp4429
g4
V18.527969
p4430
sg6
V73.874991
p4431
ssVWadgaon phata
p4432
(dp4433
g4
V18.466096
p4434
sg6
V73.816713
p4435
ssVRangehill Circle 1
p4436
(dp4437
g4
V18.5204303
p4438
sg6
V73.8567437
p4439
ssVRangehill Circle 2
p4440
(dp4441
g4
V18.5204303
p4442
sg6
V73.8567437
p4443
ssVBombay garaje
p4444
(dp4445
g4
V18.513113
p4446
sg6
V73.879872
p4447
ssVBotanical Garden
p4448
(dp4449
g4
V18.5660186
p4450
sg6
V73.8257325
p4451
ssVRakshak Society Kharadi
p4452
(dp4453
g4
V18.5545369
p4454
sg6
V73.9418603
p4455
ssVMarnewadi
p4456
(dp4457
g4
V18.473479
p4458
sg6
V73.645226
p4459
ssVKusalkar Putala
p4460
(dp4461
g4
V18.5204303
p4462
sg6
V73.8567437
p4463
ssVWireless colony
p4464
(dp4465
g4
V18.563068
p4466
sg6
V73.8064325
p4467
ssVTalegaon Phata ST Stand
p4468
(dp4469
g4
V18.5204303
p4470
sg6
V73.8567437
p4471
ssVKasrawadi
p4472
(dp4473
g4
V18.6060873
p4474
sg6
V73.8227917
p4475
ssVST workshop
p4476
(dp4477
g4
V19.200565
p4478
sg6
V72.973287
p4479
ssVKunte Chauk
p4480
(dp4481
g4
V18.514469
p4482
sg6
V73.852255
p4483
ssVPetrol Pump
p4484
(dp4485
g4
V18.414299
p4486
sg6
V73.762883
p4487
ssVStage kramank 7
p4488
(dp4489
g4
V18.417774
p4490
sg6
V73.856749
p4491
ssVGarden city
p4492
(dp4493
g4
V18.6807904
p4494
sg6
V73.7470502
p4495
ssVWipro company Circle
p4496
(dp4497
g4
V18.5133118
p4498
sg6
V73.82879
p4499
ssVBorate Vasti
p4500
(dp4501
g4
V18.665352
p4502
sg6
V73.84863
p4503
ssVBhekarai Nagar
p4504
(dp4505
g4
V18.4882495
p4506
sg6
V73.9499426
p4507
ssVAnkush chauk
p4508
(dp4509
g4
V18.666305
p4510
sg6
V73.776112
p4511
ssVWaghire height
p4512
(dp4513
g4
V18.5204303
p4514
sg6
V73.8567437
p4515
ssVJog Engineering
p4516
(dp4517
g4
V18.5204303
p4518
sg6
V73.8567437
p4519
ssVKhandave Bungalow
p4520
(dp4521
g4
V18.5204303
p4522
sg6
V73.8567437
p4523
ssVAhire gate Phata
p4524
(dp4525
g4
V18.466865
p4526
sg6
V73.779361
p4527
ssVWalhekarwadi phata
p4528
(dp4529
g4
V18.5204303
p4530
sg6
V73.8567437
p4531
ssVMohitewadi
p4532
(dp4533
g4
V18.7432296
p4534
sg6
V73.6072583
p4535
ssVShivshankar Super market
p4536
(dp4537
g4
V18.440582
p4538
sg6
V73.86607
p4539
ssVFamily Camp
p4540
(dp4541
g4
V18.523308
p4542
sg6
V73.88665
p4543
ssVIdrayani nagar bhosari
p4544
(dp4545
g4
V18.6343474
p4546
sg6
V73.8411712
p4547
ssVNaik Bungalow
p4548
(dp4549
g4
V18.504394
p4550
sg6
V73.8201035
p4551
ssVKaspate Vasti 
p4552
(dp4553
g4
V18.5927957
p4554
sg6
V73.7698492
p4555
ssVBinawat Township
p4556
(dp4557
g4
V18.5204303
p4558
sg6
V73.8567437
p4559
ssVBijlinagar
p4560
(dp4561
g4
V18.6374555
p4562
sg6
V73.7764901
p4563
ssVCharholi Gaon
p4564
(dp4565
g4
V18.5204303
p4566
sg6
V73.8567437
p4567
ssVKondhva Shala
p4568
(dp4569
g4
V18.5229255
p4570
sg6
V73.8677464
p4571
ssVAnand nagar paud road
p4572
(dp4573
g4
V18.5094546
p4574
sg6
V73.8136711
p4575
ssVTan Protex
p4576
(dp4577
g4
V18.5204303
p4578
sg6
V73.8567437
p4579
ssVManjari Khurda Avhalwadi Phata
p4580
(dp4581
g4
V18.5204303
p4582
sg6
V73.8567437
p4583
ssVGhorpade peth colony
p4584
(dp4585
g4
V18.5032467
p4586
sg6
V73.8645797
p4587
ssVManik Colony
p4588
(dp4589
g4
V18.6285832
p4590
sg6
V73.7878659
p4591
ssVKrushna mandir
p4592
(dp4593
g4
V18.5804018
p4594
sg6
V73.8152709
p4595
ssVAshok Layland
p4596
(dp4597
g4
V18.5204303
p4598
sg6
V73.8567437
p4599
ssVVijaynagar
p4600
(dp4601
g4
V18.6338649
p4602
sg6
V73.7334431
p4603
ssVDatta mandir Wadgaon sheri
p4604
(dp4605
g4
V18.5454572
p4606
sg6
V73.9221359
p4607
ssVKakde Vasti
p4608
(dp4609
g4
V18.6733338
p4610
sg6
V74.6017946
p4611
ssVStar gardan
p4612
(dp4613
g4
V18.475317
p4614
sg6
V73.816215
p4615
ssVWadgaon budruk
p4616
(dp4617
g4
V18.4673041
p4618
sg6
V73.8330844
p4619
ssVSudarshan nagar
p4620
(dp4621
g4
V18.598397
p4622
sg6
V73.812046
p4623
ssVM M Shala
p4624
(dp4625
g4
V18.526415
p4626
sg6
V73.826976
p4627
ssVNagarroad Phata Shriramnagar
p4628
(dp4629
g4
V18.5204303
p4630
sg6
V73.8567437
p4631
ssVDnyaneshwar Paduka chowk
p4632
(dp4633
g4
V18.5204303
p4634
sg6
V73.8567437
p4635
ssVJakat Naka Khese Ali
p4636
(dp4637
g4
V18.5204303
p4638
sg6
V73.8567437
p4639
ssVAppu Ghar
p4640
(dp4641
g4
V18.6658833
p4642
sg6
V73.7628792
p4643
ssVKadam wasti
p4644
(dp4645
g4
V18.7277318
p4646
sg6
V73.6544392
p4647
ssVVanaz corner
p4648
(dp4649
g4
V18.50766
p4650
sg6
V73.808069
p4651
ssVDSK Vishwa
p4652
(dp4653
g4
V18.4401119
p4654
sg6
V73.7998149
p4655
ssVKhan Road
p4656
(dp4657
g4
V18.519151
p4658
sg6
V73.879542
p4659
ssVPolice Line Padamji
p4660
(dp4661
g4
V18.5204303
p4662
sg6
V73.8567437
p4663
ssVPatil Wasti Wadgaon Shinde
p4664
(dp4665
g4
V18.5204303
p4666
sg6
V73.8567437
p4667
ssVSai Industries Company
p4668
(dp4669
g4
V18.438998
p4670
sg6
V73.862968
p4671
ssVWater Supply Ravet
p4672
(dp4673
g4
V18.6496322
p4674
sg6
V73.7448437
p4675
ssVMangalben company Sai service
p4676
(dp4677
g4
V18.5204303
p4678
sg6
V73.8567437
p4679
ssVPower House Phursungi
p4680
(dp4681
g4
V18.476421
p4682
sg6
V73.957156
p4683
ssVSpicer College Press
p4684
(dp4685
g4
V18.5204303
p4686
sg6
V73.8567437
p4687
ssVAkurdi Khandoba Chowk
p4688
(dp4689
g4
V18.649997
p4690
sg6
V73.785165
p4691
ssVHutatma chauk
p4692
(dp4693
g4
V18.5204303
p4694
sg6
V73.8567437
p4695
ssVNaik Hospital
p4696
(dp4697
g4
V18.5104337
p4698
sg6
V73.8595057
p4699
ssVBhatnagar
p4700
(dp4701
g4
V18.477816
p4702
sg6
V73.8975826
p4703
ssVPunekar wasti
p4704
(dp4705
g4
V18.5204303
p4706
sg6
V73.8567437
p4707
ssVKrushnanagar Corner
p4708
(dp4709
g4
V18.666661
p4710
sg6
V73.795941
p4711
ssVMitramandal Sabhagruh
p4712
(dp4713
g4
V18.5204303
p4714
sg6
V73.8567437
p4715
ssVChakan market yard
p4716
(dp4717
g4
V18.4868701
p4718
sg6
V73.8676347
p4719
ssVDatta Mandir
p4720
(dp4721
g4
V18.561495
p4722
sg6
V73.785635
p4723
ssVPMC Mangala
p4724
(dp4725
g4
V18.523954
p4726
sg6
V73.85418
p4727
ssVShri Shatrunjay jain temple
p4728
(dp4729
g4
V18.4516009
p4730
sg6
V73.8781088
p4731
ssVSindh colony
p4732
(dp4733
g4
V18.548815
p4734
sg6
V73.813016
p4735
ssVBaner gaon
p4736
(dp4737
g4
V18.5601154
p4738
sg6
V73.7871306
p4739
ssVVasant talkies
p4740
(dp4741
g4
V18.51799
p4742
sg6
V73.856281
p4743
ssVWadgaon Shinde
p4744
(dp4745
g4
V18.6121054
p4746
sg6
V73.9395631
p4747
ssVMaruti Mandir Karve Road
p4748
(dp4749
g4
V18.503754
p4750
sg6
V73.820291
p4751
ssVKunjir mala
p4752
(dp4753
g4
V18.5204303
p4754
sg6
V73.8567437
p4755
ssVShridhar Colony
p4756
(dp4757
g4
V18.487291
p4758
sg6
V73.820816
p4759
ssVFatimanagar Municipal shala
p4760
(dp4761
g4
V18.5204303
p4762
sg6
V73.8567437
p4763
ssVKasturba vasahat
p4764
(dp4765
g4
V18.5204303
p4766
sg6
V73.8567437
p4767
ssVAlankar Talkies
p4768
(dp4769
g4
V18.528749
p4770
sg6
V73.876116
p4771
ssVMundhava goan corner
p4772
(dp4773
g4
V18.533802
p4774
sg6
V73.929892
p4775
ssVGujarwadi
p4776
(dp4777
g4
V18.426685
p4778
sg6
V73.875557
p4779
ssVRailway gate Mhatobachi alandi
p4780
(dp4781
g4
V18.6667
p4782
sg6
V73.9
p4783
ssVLoni phata
p4784
(dp4785
g4
V18.488876
p4786
sg6
V74.027791
p4787
ssVPopular Nagar Cipla cancer care entre
p4788
(dp4789
g4
V18.5204303
p4790
sg6
V73.8567437
p4791
ssVWanvadi Corner 
p4792
(dp4793
g4
V18.499098
p4794
sg6
V73.895513
p4795
ssVBand garden
p4796
(dp4797
g4
V18.5347267
p4798
sg6
V73.8797127
p4799
ssVMahesh nagar
p4800
(dp4801
g4
V18.6269427
p4802
sg6
V73.8204022
p4803
ssVTukai nagar
p4804
(dp4805
g4
V18.487942
p4806
sg6
V73.9422277
p4807
ssVMental Hospital Corner
p4808
(dp4809
g4
V18.5204303
p4810
sg6
V73.8567437
p4811
ssVLower Indiranagar
p4812
(dp4813
g4
V18.468755
p4814
sg6
V73.864166
p4815
ssVWalke Wasti
p4816
(dp4817
g4
V18.5204303
p4818
sg6
V73.8567437
p4819
ssVVSI company
p4820
(dp4821
g4
V18.5204303
p4822
sg6
V73.8567437
p4823
ssVKivale phata
p4824
(dp4825
g4
V18.5381935
p4826
sg6
V73.7812713
p4827
ssVGandhibhavan Andhshala
p4828
(dp4829
g4
V18.5204303
p4830
sg6
V73.8567437
p4831
ssVChaitanya Vidyalaya 
p4832
(dp4833
g4
V18.5204303
p4834
sg6
V73.8567437
p4835
ssVTrimurti bunglow
p4836
(dp4837
g4
V18.5204303
p4838
sg6
V73.8567437
p4839
ssVSadhu wasvani chauk
p4840
(dp4841
g4
V18.52504
p4842
sg6
V73.876765
p4843
ssVVitthalwadi Mandir Hingne
p4844
(dp4845
g4
V18.5204303
p4846
sg6
V73.8567437
p4847
ssVKarachi chowk
p4848
(dp4849
g4
V18.5204303
p4850
sg6
V73.8567437
p4851
ssVGreen Park hotel
p4852
(dp4853
g4
V18.5142993
p4854
sg6
V73.8383979
p4855
ssVHadapsar gaon
p4856
(dp4857
g4
V18.501672
p4858
sg6
V73.93307
p4859
ssVBhansali complex
p4860
(dp4861
g4
V18.5204303
p4862
sg6
V73.8567437
p4863
ssVNandadeep
p4864
(dp4865
g4
V18.5246706
p4866
sg6
V73.8278922
p4867
ssVKalubai mandir solapur road
p4868
(dp4869
g4
V18.506623
p4870
sg6
V73.906536
p4871
ssVCity post
p4872
(dp4873
g4
V18.515744
p4874
sg6
V73.856806
p4875
ssVWakhar Mahamandal Marketyard
p4876
(dp4877
g4
V18.5204303
p4878
sg6
V73.8567437
p4879
ssVWadache jhad
p4880
(dp4881
g4
V18.491529
p4882
sg6
V73.815159
p4883
ssVSpicer college
p4884
(dp4885
g4
V18.5636712
p4886
sg6
V73.8194832
p4887
ssVKarehar company
p4888
(dp4889
g4
V18.5204303
p4890
sg6
V73.8567437
p4891
ssVMaruti mandir ves
p4892
(dp4893
g4
V18.5204303
p4894
sg6
V73.8567437
p4895
ssVDarekar Wasti
p4896
(dp4897
g4
V18.5204303
p4898
sg6
V73.8567437
p4899
ssVRajgurunagar Khed
p4900
(dp4901
g4
V18.8536125
p4902
sg6
V73.88454
p4903
ssVRahatani Phata
p4904
(dp4905
g4
V18.5980935
p4906
sg6
V73.7995844
p4907
ssVShivshakti mandir
p4908
(dp4909
g4
V18.5204303
p4910
sg6
V73.8567437
p4911
ssVAranyeshwar Corner
p4912
(dp4913
g4
V18.4925316
p4914
sg6
V73.8574469
p4915
ssVChh.Shivaji krida sankul
p4916
(dp4917
g4
V18.5204303
p4918
sg6
V73.8567437
p4919
ssVSurya hospital
p4920
(dp4921
g4
V18.52159
p4922
sg6
V73.855775
p4923
ssVNCL Market
p4924
(dp4925
g4
V18.539926
p4926
sg6
V73.816823
p4927
ssVPradhikaran Chowk
p4928
(dp4929
g4
V18.65873
p4930
sg6
V73.777516
p4931
ssVWarje jakatnaka
p4932
(dp4933
g4
V18.484655
p4934
sg6
V73.810415
p4935
ssVThergaon phata 
p4936
(dp4937
g4
V18.617356
p4938
sg6
V73.767218
p4939
ssVBhauraba nala
p4940
(dp4941
g4
V18.506624
p4942
sg6
V73.897567
p4943
ssVShivane Gaon
p4944
(dp4945
g4
V18.4558393
p4946
sg6
V73.8209234
p4947
ssVMhasoba wasti
p4948
(dp4949
g4
V18.4797807
p4950
sg6
V73.9412863
p4951
ssVIndrayani pul
p4952
(dp4953
g4
V18.670046
p4954
sg6
V73.984985
p4955
ssVKandhare poultry farm
p4956
(dp4957
g4
V18.350888
p4958
sg6
V73.813346
p4959
ssVHanuman chowk
p4960
(dp4961
g4
V18.5116908
p4962
sg6
V73.8032241
p4963
ssVVittbhatti XPS Company
p4964
(dp4965
g4
V18.5204303
p4966
sg6
V73.8567437
p4967
ssVAnnadhanya Godam
p4968
(dp4969
g4
V18.5204303
p4970
sg6
V73.8567437
p4971
ssVBhairoba Pumping Station
p4972
(dp4973
g4
V18.5204303
p4974
sg6
V73.8567437
p4975
ssVVishrantwadi corner
p4976
(dp4977
g4
V18.5204303
p4978
sg6
V73.8567437
p4979
ssVDange chowk
p4980
(dp4981
g4
V18.6151
p4982
sg6
V73.765693
p4983
ssVMalran 
p4984
(dp4985
g4
V18.5204303
p4986
sg6
V73.8567437
p4987
ssVMES Water Works
p4988
(dp4989
g4
V18.5204303
p4990
sg6
V73.8567437
p4991
ssVSadgurunagar
p4992
(dp4993
g4
V18.63525
p4994
sg6
V73.851463
p4995
ssVSomatne Phata
p4996
(dp4997
g4
V18.702951
p4998
sg6
V73.687747
p4999
ssVST stand Paudgaon
p5000
(dp5001
g4
V18.5204303
p5002
sg6
V73.8567437
p5003
ssVTata Motors IT Park 
p5004
(dp5005
g4
V18.5204303
p5006
sg6
V73.8567437
p5007
ssVGulmohar City Military Stadium
p5008
(dp5009
g4
V18.5204303
p5010
sg6
V73.8567437
p5011
ssVBhumkar Complex
p5012
(dp5013
g4
V18.602887
p5014
sg6
V73.749347
p5015
ssVArmy College
p5016
(dp5017
g4
V18.52964
p5018
sg6
V73.907933
p5019
ssVDnyaneshwar June Nivas/Sai Mandir
p5020
(dp5021
g4
V18.5204303
p5022
sg6
V73.8567437
p5023
ssVTathawade Phata
p5024
(dp5025
g4
V18.5967267
p5026
sg6
V73.7939677
p5027
ssVEkora Company Kalyani Forbes
p5028
(dp5029
g4
V18.5204303
p5030
sg6
V73.8567437
p5031
ssVRama Bistake park
p5032
(dp5033
g4
V18.5204303
p5034
sg6
V73.8567437
p5035
ssVJaihind School
p5036
(dp5037
g4
V18.6174079
p5038
sg6
V73.8010831
p5039
ssVKaleborate Nagar
p5040
(dp5041
g4
V18.484989
p5042
sg6
V73.939395
p5043
ssVIndrayani nagar corner
p5044
(dp5045
g4
V18.540509
p5046
sg6
V73.830538
p5047
ssVAnand park sindhi colony
p5048
(dp5049
g4
V18.5568162
p5050
sg6
V73.806984
p5051
ssVKharabwadi
p5052
(dp5053
g4
V18.7642867
p5054
sg6
V73.8360251
p5055
ssVDumewadi 
p5056
(dp5057
g4
V18.5825868
p5058
sg6
V73.7683784
p5059
ssVRailway crossing
p5060
(dp5061
g4
V18.5287449
p5062
sg6
V73.8966848
p5063
ssVSadgurunagar PCMT depot 
p5064
(dp5065
g4
V18.632208
p5066
sg6
V73.849931
p5067
ssVAdlar Engineering
p5068
(dp5069
g4
V18.5204303
p5070
sg6
V73.8567437
p5071
ssVWadia bunglow
p5072
(dp5073
g4
V18.549831
p5074
sg6
V73.893714
p5075
ssVLokmanya nagar 
p5076
(dp5077
g4
V18.5066779
p5078
sg6
V73.8470523
p5079
ssVMhalunge Phata
p5080
(dp5081
g4
V18.5381935
p5082
sg6
V73.7812713
p5083
ssVPanale farm
p5084
(dp5085
g4
V18.5204303
p5086
sg6
V73.8567437
p5087
ssVLakshmiBai Mandir
p5088
(dp5089
g4
V18.5204303
p5090
sg6
V73.8567437
p5091
ssVGokul Nagar Katraj
p5092
(dp5093
g4
V18.4471901
p5094
sg6
V73.874985
p5095
ssVKudba Kruti Manmohan
p5096
(dp5097
g4
V18.5204303
p5098
sg6
V73.8567437
p5099
ssVNagpur chawl
p5100
(dp5101
g4
V18.5629104
p5102
sg6
V73.8939134
p5103
ssVPimprigaon
p5104
(dp5105
g4
V18.6089687
p5106
sg6
V73.8025493
p5107
ssVMaster Bakery
p5108
(dp5109
g4
V18.632471
p5110
sg6
V73.81993
p5111
ssVChakan Oil mill
p5112
(dp5113
g4
V18.43958
p5114
sg6
V73.846932
p5115
ssVGanpati matha
p5116
(dp5117
g4
V18.475692
p5118
sg6
V73.795743
p5119
ssVBalgandharv sambhaji par
p5120
(dp5121
g4
V18.5204303
p5122
sg6
V73.8567437
p5123
ssVBhosale Vasti
p5124
(dp5125
g4
V18.5512304
p5126
sg6
V73.7990016
p5127
ssVWade Bolhai
p5128
(dp5129
g4
V18.5204303
p5130
sg6
V73.8567437
p5131
ssVTata gaurdroom Kharadi phata
p5132
(dp5133
g4
V18.562652
p5134
sg6
V73.927638
p5135
ssVSai madnir
p5136
(dp5137
g4
V18.5823781
p5138
sg6
V73.8127709
p5139
ssVAtulnagar gate
p5140
(dp5141
g4
V18.4871314
p5142
sg6
V73.7960866
p5143
ssVShitole mala
p5144
(dp5145
g4
V18.573082
p5146
sg6
V73.834668
p5147
ssVKedari Nagar
p5148
(dp5149
g4
V18.4989051
p5150
sg6
V73.9025463
p5151
ssVKarandi Phata
p5152
(dp5153
g4
V19.3657748
p5154
sg6
V74.0242213
p5155
ssVNDA gate Kondhava gate
p5156
(dp5157
g4
V18.455919
p5158
sg6
V73.768468
p5159
ssVTata stores
p5160
(dp5161
g4
V18.62682
p5162
sg6
V73.864288
p5163
ssVZendewadi 
p5164
(dp5165
g4
V18.413397
p5166
sg6
V74.007566
p5167
ssVChinchwade Farm
p5168
(dp5169
g4
V18.7791889
p5170
sg6
V73.8120389
p5171
ssVPetrol pump rajendranagar
p5172
(dp5173
g4
V18.510551
p5174
sg6
V73.834878
p5175
ssVAgrawal Colony
p5176
(dp5177
g4
V18.509763
p5178
sg6
V73.8762713
p5179
ssVAmrai
p5180
(dp5181
g4
V18.421127
p5182
sg6
V73.730057
p5183
ssVJadhav wadi phata
p5184
(dp5185
g4
V18.5204303
p5186
sg6
V73.8567437
p5187
ssVShindewadi Ghotawale
p5188
(dp5189
g4
V18.512912
p5190
sg6
V73.677791
p5191
ssVPetrol pump karve road
p5192
(dp5193
g4
V18.510551
p5194
sg6
V73.834878
p5195
ssVVishnu Udyog
p5196
(dp5197
g4
V18.5204303
p5198
sg6
V73.8567437
p5199
ssVBajaj auto
p5200
(dp5201
g4
V18.653783
p5202
sg6
V73.781962
p5203
ssVBhairavnagar Pimple Gurav
p5204
(dp5205
g4
V18.5867193
p5206
sg6
V73.8154394
p5207
ssVChorex Company
p5208
(dp5209
g4
V18.5204303
p5210
sg6
V73.8567437
p5211
ssVPhulgaon Phata
p5212
(dp5213
g4
V18.5204303
p5214
sg6
V73.8567437
p5215
ssVBebadohal
p5216
(dp5217
g4
V18.6912834
p5218
sg6
V73.6462625
p5219
ssVShelke wasti
p5220
(dp5221
g4
V18.5204303
p5222
sg6
V73.8567437
p5223
ssVBharti nagar
p5224
(dp5225
g4
V18.5069596
p5226
sg6
V73.7966899
p5227
ssVZhende mala
p5228
(dp5229
g4
V18.5204303
p5230
sg6
V73.8567437
p5231
ssVGhorpadi Peth Colony
p5232
(dp5233
g4
V18.5204303
p5234
sg6
V73.8567437
p5235
ssVChavan Nagar Sambhajinagar
p5236
(dp5237
g4
V18.4694197
p5238
sg6
V73.8553222
p5239
ssVJuna jakat naka
p5240
(dp5241
g4
V18.662099
p5242
sg6
V73.848475
p5243
ssVChaitanya sabhagruha
p5244
(dp5245
g4
V18.4883323
p5246
sg6
V73.8131
p5247
ssVAbhinav kala vidyalaya
p5248
(dp5249
g4
V18.5054837
p5250
sg6
V73.8532734
p5251
ssVSanewadi
p5252
(dp5253
g4
V18.5549196
p5254
sg6
V73.805881
p5255
ssVWarje malwadi
p5256
(dp5257
g4
V18.474689
p5258
sg6
V73.8022046
p5259
ssVA B Chowk
p5260
(dp5261
g4
V18.5111468
p5262
sg6
V73.8371508
p5263
ssVKrushi mahavidyalaya
p5264
(dp5265
g4
V18.5204303
p5266
sg6
V73.8567437
p5267
ssVMaruti Mandir Wakad
p5268
(dp5269
g4
V18.589549
p5270
sg6
V73.774258
p5271
ssVDudhane wasti
p5272
(dp5273
g4
V18.471332
p5274
sg6
V73.790372
p5275
ssVDevendra Mangal Karyalaya
p5276
(dp5277
g4
V18.5204303
p5278
sg6
V73.8567437
p5279
ssVBham
p5280
(dp5281
g4
V18.5204303
p5282
sg6
V73.8567437
p5283
ssVRamwadi jakatnaka
p5284
(dp5285
g4
V18.555108
p5286
sg6
V73.905778
p5287
ssVDhangar nagar kalewadi
p5288
(dp5289
g4
V18.6150264
p5290
sg6
V73.7933809
p5291
ssVVelugoan Phata
p5292
(dp5293
g4
V18.5204303
p5294
sg6
V73.8567437
p5295
ssVTata Stores
p5296
(dp5297
g4
V18.62682
p5298
sg6
V73.864288
p5299
ssVMoje vidyalaya
p5300
(dp5301
g4
V18.5204303
p5302
sg6
V73.8567437
p5303
ssVKaspate Vasti
p5304
(dp5305
g4
V18.5927957
p5306
sg6
V73.7698492
p5307
ssVLaxmi Narayan Theature
p5308
(dp5309
g4
V18.5204303
p5310
sg6
V73.8567437
p5311
ssVWaki Budruk
p5312
(dp5313
g4
V18.5204303
p5314
sg6
V73.8567437
p5315
ssVNisarg Aaditya group
p5316
(dp5317
g4
V18.5204303
p5318
sg6
V73.8567437
p5319
ssVAhilya Society
p5320
(dp5321
g4
V18.552747
p5322
sg6
V73.878122
p5323
ssVPatil Wasti Kharadi
p5324
(dp5325
g4
V18.5705799
p5326
sg6
V73.9461665
p5327
ssVShadal baba Darga 
p5328
(dp5329
g4
V18.544183
p5330
sg6
V73.878067
p5331
ssVD Y Patil Chowk
p5332
(dp5333
g4
V18.534799
p5334
sg6
V73.879601
p5335
ssVNDA gate Kondhva Gate
p5336
(dp5337
g4
V18.455919
p5338
sg6
V73.768468
p5339
ssVPooja hospital
p5340
(dp5341
g4
V18.589886
p5342
sg6
V73.81952
p5343
ssVPanyachi Taki
p5344
(dp5345
g4
V18.575289
p5346
sg6
V73.814975
p5347
ssVSangrun Phata
p5348
(dp5349
g4
V18.403979
p5350
sg6
V73.681827
p5351
ssVYerwada post office
p5352
(dp5353
g4
V18.558997
p5354
sg6
V73.892022
p5355
ssVNivedita Jhula Ghar Kirkat wadi
p5356
(dp5357
g4
V18.5204303
p5358
sg6
V73.8567437
p5359
ssVMIDC Bhosari
p5360
(dp5361
g4
V18.6388707
p5362
sg6
V73.7779386
p5363
ssVGurudwara dehu road
p5364
(dp5365
g4
V18.6821027
p5366
sg6
V73.7316304
p5367
ssVKasar amboli
p5368
(dp5369
g4
V18.5110959
p5370
sg6
V73.6635544
p5371
ssVJyoti School
p5372
(dp5373
g4
V18.6301835
p5374
sg6
V73.8236171
p5375
ssVLueMax
p5376
(dp5377
g4
V18.5204303
p5378
sg6
V73.8567437
p5379
ssVSane chauk
p5380
(dp5381
g4
V18.670071
p5382
sg6
V73.798221
p5383
ssVSanaswadi
p5384
(dp5385
g4
V18.6689214
p5386
sg6
V74.0975678
p5387
ssVMitra sahakar nagar
p5388
(dp5389
g4
V18.484678
p5390
sg6
V73.845238
p5391
ssVYashoda Nivas
p5392
(dp5393
g4
V18.6514906
p5394
sg6
V73.7804729
p5395
ssVGeetabhavan
p5396
(dp5397
g4
V18.5117757
p5398
sg6
V73.8499252
p5399
ssVPaud phata police chauky
p5400
(dp5401
g4
V18.5069
p5402
sg6
V73.823727
p5403
ssVPoultry Farm Aglambe
p5404
(dp5405
g4
V18.5204303
p5406
sg6
V73.8567437
p5407
ssVF C College
p5408
(dp5409
g4
V18.516436
p5410
sg6
V73.773213
p5411
ssVST stand pirangut
p5412
(dp5413
g4
V18.51294
p5414
sg6
V73.678408
p5415
ssVJuna motor stand
p5416
(dp5417
g4
V18.50921
p5418
sg6
V73.872776
p5419
ssVParanj company Relax hotel
p5420
(dp5421
g4
V18.5204303
p5422
sg6
V73.8567437
p5423
ssVKharalwadi
p5424
(dp5425
g4
V18.6273149
p5426
sg6
V73.8102927
p5427
ssVSmashanbhumi Rasta Hadapsar
p5428
(dp5429
g4
V18.502796
p5430
sg6
V73.935062
p5431
ssVRuston Company
p5432
(dp5433
g4
V18.5204303
p5434
sg6
V73.8567437
p5435
ssVPimple Nilakh
p5436
(dp5437
g4
V18.5799471
p5438
sg6
V73.7874983
p5439
ssVLandewadi
p5440
(dp5441
g4
V18.6220387
p5442
sg6
V73.840436
p5443
ssVTan protex
p5444
(dp5445
g4
V18.5204303
p5446
sg6
V73.8567437
p5447
ssVVidyapeeth Press
p5448
(dp5449
g4
V18.5204303
p5450
sg6
V73.8567437
p5451
ssVNatu Bag
p5452
(dp5453
g4
V18.481564
p5454
sg6
V73.857141
p5455
ssVPoultry farm singhgad road
p5456
(dp5457
g4
V18.5204303
p5458
sg6
V73.8567437
p5459
ssVVitbhatti singhgad rd
p5460
(dp5461
g4
V18.492252
p5462
sg6
V73.834255
p5463
ssVMoshi Phata Chimbli Phata
p5464
(dp5465
g4
V18.5204303
p5466
sg6
V73.8567437
p5467
ssVLakshmimata Mandir Mohammadwadi
p5468
(dp5469
g4
V18.5204303
p5470
sg6
V73.8567437
p5471
ssVPunawale corner
p5472
(dp5473
g4
V18.5204303
p5474
sg6
V73.8567437
p5475
ssVChillal masala company
p5476
(dp5477
g4
V18.34711
p5478
sg6
V73.829383
p5479
ssVKoregaon Bhima
p5480
(dp5481
g4
V18.6485712
p5482
sg6
V74.0623244
p5483
ssVMata Amardevi temple
p5484
(dp5485
g4
V18.6965913
p5486
sg6
V73.7082882
p5487
ssVRahatawade Vasti
p5488
(dp5489
g4
V18.5204303
p5490
sg6
V73.8567437
p5491
ssVGanpati mandir
p5492
(dp5493
g4
V18.562025
p5494
sg6
V73.836551
p5495
ssVRamya Nagari
p5496
(dp5497
g4
V18.4693262
p5498
sg6
V73.8687372
p5499
ssVLalmahal
p5500
(dp5501
g4
V18.5187204
p5502
sg6
V73.8566546
p5503
ssVDiamond watch Company
p5504
(dp5505
g4
V18.533852
p5506
sg6
V73.923752
p5507
ssVMagarpatta
p5508
(dp5509
g4
V18.502839
p5510
sg6
V73.926607
p5511
ssVNasrapur ST Stand
p5512
(dp5513
g4
V18.255063
p5514
sg6
V73.883645
p5515
ssVKanifnath Soc.
p5516
(dp5517
g4
V18.4954474
p5518
sg6
V73.9322163
p5519
ssVKalashankar
p5520
(dp5521
g4
V18.519537
p5522
sg6
V73.906534
p5523
ssVShivarkar Garden
p5524
(dp5525
g4
V18.50475
p5526
sg6
V73.901053
p5527
ssVchinchwad station
p5528
(dp5529
g4
V18.656994
p5530
sg6
V73.765219
p5531
ssVJai Hind Vidyalaya
p5532
(dp5533
g4
V18.5204303
p5534
sg6
V73.8567437
p5535
ssVJuna pul gate
p5536
(dp5537
g4
V18.50801
p5538
sg6
V73.879397
p5539
ssVShaniwar wada
p5540
(dp5541
g4
V18.5159203
p5542
sg6
V73.8487982
p5543
ssVCanol Jhopadpatti
p5544
(dp5545
g4
V18.495727
p5546
sg6
V73.869256
p5547
ssVMalwadi Phulgaon
p5548
(dp5549
g4
V18.656031
p5550
sg6
V74.0153231
p5551
ssVJagtap chauk
p5552
(dp5553
g4
V18.492024
p5554
sg6
V73.900162
p5555
ssVTransport Nagari
p5556
(dp5557
g4
V18.6653272
p5558
sg6
V73.767643
p5559
ssVAmbedkar bhavan
p5560
(dp5561
g4
V18.5253
p5562
sg6
V73.867981
p5563
ssVSahakar Nagar
p5564
(dp5565
g4
V18.4768152
p5566
sg6
V73.855506
p5567
ssVRawet
p5568
(dp5569
g4
V18.6496322
p5570
sg6
V73.7448437
p5571
ssVQueen company 
p5572
(dp5573
g4
V18.5204303
p5574
sg6
V73.8567437
p5575
ssVLadies Hostel Pune University
p5576
(dp5577
g4
V18.55173
p5578
sg6
V73.82815
p5579
ssVPhilips
p5580
(dp5581
g4
V18.6203626
p5582
sg6
V73.8506861
p5583
ssVSahvas Soc
p5584
(dp5585
g4
V18.4947072
p5586
sg6
V73.8202957
p5587
ssVDurwankur lawns
p5588
(dp5589
g4
V18.5204303
p5590
sg6
V73.8567437
p5591
ssVJuna Bajar 
p5592
(dp5593
g4
V18.527256
p5594
sg6
V73.862344
p5595
ssVMasoba gate
p5596
(dp5597
g4
V18.532468
p5598
sg6
V73.842384
p5599
ssVJanwadi
p5600
(dp5601
g4
V18.5292326
p5602
sg6
V73.8249973
p5603
ssVNashik phata
p5604
(dp5605
g4
V18.5980935
p5606
sg6
V73.7995844
p5607
ssVVitbhatti Kalyangaon
p5608
(dp5609
g4
V18.5204303
p5610
sg6
V73.8567437
p5611
ssVGandhi Training Corner
p5612
(dp5613
g4
V18.5204303
p5614
sg6
V73.8567437
p5615
ssVHill Villa
p5616
(dp5617
g4
V18.452697
p5618
sg6
V73.883522
p5619
ssVChinchwad gaon
p5620
(dp5621
g4
V18.6338043
p5622
sg6
V73.7791795
p5623
ssVA B Chauk Stand
p5624
(dp5625
g4
V18.559766
p5626
sg6
V73.815308
p5627
ssVManjri farm
p5628
(dp5629
g4
V18.495136
p5630
sg6
V73.979009
p5631
ssVBhosari police station
p5632
(dp5633
g4
V18.617412
p5634
sg6
V73.825929
p5635
ssVTalab Farm
p5636
(dp5637
g4
V18.461244
p5638
sg6
V73.890456
p5639
ssVKhadi Machine 
p5640
(dp5641
g4
V18.452978
p5642
sg6
V73.890933
p5643
ssVHarpale wasti 
p5644
(dp5645
g4
V18.5204303
p5646
sg6
V73.8567437
p5647
ssVGuruprasad bangala
p5648
(dp5649
g4
V18.5204303
p5650
sg6
V73.8567437
p5651
ssVSaint Meera college
p5652
(dp5653
g4
V18.536501
p5654
sg6
V73.885682
p5655
ssVParade ground
p5656
(dp5657
g4
V18.5058449
p5658
sg6
V73.8946277
p5659
ssVVikasnagar Corner
p5660
(dp5661
g4
V18.5175497
p5662
sg6
V73.8659066
p5663
ssVChowdhari Bag 
p5664
(dp5665
g4
V18.5204303
p5666
sg6
V73.8567437
p5667
ssVChaufula 
p5668
(dp5669
g4
V18.5204303
p5670
sg6
V73.8567437
p5671
ssVAIT college
p5672
(dp5673
g4
V18.607573
p5674
sg6
V73.873364
p5675
ssVIndian hum company
p5676
(dp5677
g4
V18.5204303
p5678
sg6
V73.8567437
p5679
ssVSwaraj Mazda
p5680
(dp5681
g4
V18.5204303
p5682
sg6
V73.8567437
p5683
ssVAjmer school
p5684
(dp5685
g4
V18.634152
p5686
sg6
V73.810111
p5687
ssVNanekar park
p5688
(dp5689
g4
V18.5204303
p5690
sg6
V73.8567437
p5691
ssVRamnagar rahatani
p5692
(dp5693
g4
V18.603268
p5694
sg6
V73.792478
p5695
ssVKhadaki police station
p5696
(dp5697
g4
V18.5571993
p5698
sg6
V73.8453063
p5699
ssVMIDC Phata
p5700
(dp5701
g4
V18.5980935
p5702
sg6
V73.7995844
p5703
ssVPaud phata dashbhuja mandir
p5704
(dp5705
g4
V18.5204303
p5706
sg6
V73.8567437
p5707
ssVMukbadhir shala
p5708
(dp5709
g4
V18.659358
p5710
sg6
V73.764899
p5711
ssVTapkir Bungalow
p5712
(dp5713
g4
V18.5204303
p5714
sg6
V73.8567437
p5715
ssVGuardroom gate
p5716
(dp5717
g4
V18.5204303
p5718
sg6
V73.8567437
p5719
ssVsayadnagar
p5720
(dp5721
g4
V18.4864683
p5722
sg6
V73.9293689
p5723
ssVMahatma Phule Vasahat
p5724
(dp5725
g4
V18.622309
p5726
sg6
V73.8460874
p5727
ssVShivapur wada
p5728
(dp5729
g4
V18.340913
p5730
sg6
V73.839067
p5731
ssVPancharatna Complex
p5732
(dp5733
g4
V18.5204303
p5734
sg6
V73.8567437
p5735
ssVRustan company
p5736
(dp5737
g4
V18.648278
p5738
sg6
V73.7872
p5739
ssVOm sairam complex
p5740
(dp5741
g4
V18.6324164
p5742
sg6
V73.7800298
p5743
ssVMahadeo mandir
p5744
(dp5745
g4
V18.4853903
p5746
sg6
V73.9397108
p5747
ssVBhairoba Nagar
p5748
(dp5749
g4
V18.506624
p5750
sg6
V73.897567
p5751
ssVMinilek company
p5752
(dp5753
g4
V18.500424
p5754
sg6
V73.672534
p5755
ssVOm Sairam complex
p5756
(dp5757
g4
V18.6324164
p5758
sg6
V73.7800298
p5759
ssVJaydeo nagar 
p5760
(dp5761
g4
V18.489225
p5762
sg6
V73.830747
p5763
ssVWNC Company
p5764
(dp5765
g4
V18.5204303
p5766
sg6
V73.8567437
p5767
ssVIndrayani nagar Corner Jayanand Road
p5768
(dp5769
g4
V18.5204303
p5770
sg6
V73.8567437
p5771
ssVVitthalwadi Jakat Naka
p5772
(dp5773
g4
V18.5204303
p5774
sg6
V73.8567437
p5775
ssVSundarbai shala
p5776
(dp5777
g4
V18.5204303
p5778
sg6
V73.8567437
p5779
ssVSai sayaji nagar
p5780
(dp5781
g4
V18.4909333
p5782
sg6
V73.7924618
p5783
ssVKirloskar Oil Engine Manaji Bag
p5784
(dp5785
g4
V18.569811
p5786
sg6
V73.841791
p5787
ssVMaruti Mandir 
p5788
(dp5789
g4
V18.508215
p5790
sg6
V73.853702
p5791
ssVChintamani Chowk
p5792
(dp5793
g4
V18.638229
p5794
sg6
V73.766063
p5795
ssVNirma company
p5796
(dp5797
g4
V18.5204303
p5798
sg6
V73.8567437
p5799
ssVWakhar mahamandal bhosari
p5800
(dp5801
g4
V18.6385292
p5802
sg6
V73.8477874
p5803
ssVKudje gaon
p5804
(dp5805
g4
V18.5204303
p5806
sg6
V73.8567437
p5807
ssVManik press road
p5808
(dp5809
g4
V18.5204303
p5810
sg6
V73.8567437
p5811
ssVDadegaon Phata
p5812
(dp5813
g4
V18.5204303
p5814
sg6
V73.8567437
p5815
ssVMehta hospital
p5816
(dp5817
g4
V18.645121
p5818
sg6
V73.789908
p5819
ssVPower House Ghotawade
p5820
(dp5821
g4
V18.523355
p5822
sg6
V73.669998
p5823
ssVRanubai Mala
p5824
(dp5825
g4
V18.5204303
p5826
sg6
V73.8567437
p5827
ssVSatav Nagar
p5828
(dp5829
g4
V18.4768416
p5830
sg6
V73.9304711
p5831
ssVFive nine area
p5832
(dp5833
g4
V18.4579553
p5834
sg6
V73.7919103
p5835
ssVDeccan college 
p5836
(dp5837
g4
V18.548279
p5838
sg6
V73.871937
p5839
ssVDehu road railway station
p5840
(dp5841
g4
V18.6804696
p5842
sg6
V73.7342706
p5843
ssVRechared Company
p5844
(dp5845
g4
V18.692664
p5846
sg6
V73.914777
p5847
ssVkachra depot
p5848
(dp5849
g4
V18.507438
p5850
sg6
V73.799911
p5851
ssVPimplekar wasti
p5852
(dp5853
g4
V18.5204303
p5854
sg6
V73.8567437
p5855
ssVFactory Hospital
p5856
(dp5857
g4
V18.559445
p5858
sg6
V73.846395
p5859
ssVShivaji housing board bus stop
p5860
(dp5861
g4
V18.5204303
p5862
sg6
V73.8567437
p5863
ssVAranyeshwar mandir
p5864
(dp5865
g4
V18.4855354
p5866
sg6
V73.8523804
p5867
ssVSonwane hospital
p5868
(dp5869
g4
V18.505563
p5870
sg6
V73.868499
p5871
ssVLoni station
p5872
(dp5873
g4
V18.488876
p5874
sg6
V74.027791
p5875
ssVRohakal Phata
p5876
(dp5877
g4
V18.5204303
p5878
sg6
V73.8567437
p5879
ssVRamwadi Jakatnaka
p5880
(dp5881
g4
V18.555108
p5882
sg6
V73.905778
p5883
ssVGavane Nagar
p5884
(dp5885
g4
V18.5204303
p5886
sg6
V73.8567437
p5887
ssVDabhade Wasti Charholi
p5888
(dp5889
g4
V18.657166
p5890
sg6
V73.899111
p5891
ssVWaghjai Mandir
p5892
(dp5893
g4
V18.412689
p5894
sg6
V73.858267
p5895
ssVRTO New
p5896
(dp5897
g4
V18.5204303
p5898
sg6
V73.8567437
p5899
ssVElpro Company
p5900
(dp5901
g4
V18.632986
p5902
sg6
V73.785336
p5903
ssVKhanapur
p5904
(dp5905
g4
V18.4002217
p5906
sg6
V73.7323398
p5907
ssVJK Industries
p5908
(dp5909
g4
V18.5204303
p5910
sg6
V73.8567437
p5911
ssVModel colony
p5912
(dp5913
g4
V18.5324846
p5914
sg6
V73.8374954
p5915
ssVMaharashtra chauk
p5916
(dp5917
g4
V18.5111468
p5918
sg6
V73.8371508
p5919
ssVMathalwadi
p5920
(dp5921
g4
V19.2282646
p5922
sg6
V73.1492512
p5923
ssVKarade Wasti 
p5924
(dp5925
g4
V18.562279
p5926
sg6
V73.938945
p5927
ssVBankar Vasti Moshi
p5928
(dp5929
g4
V18.671378
p5930
sg6
V73.848265
p5931
ssVBalkavade wasti
p5932
(dp5933
g4
V18.5204303
p5934
sg6
V73.8567437
p5935
ssVMutha Pool Balewadi
p5936
(dp5937
g4
V18.5825868
p5938
sg6
V73.7683784
p5939
ssVLIC Colony Khadaki
p5940
(dp5941
g4
V18.562315
p5942
sg6
V73.833407
p5943
ssVMIDC Chinchwad
p5944
(dp5945
g4
V18.603942
p5946
sg6
V73.824525
p5947
ssVAhilyadevi Shala
p5948
(dp5949
g4
V18.5204303
p5950
sg6
V73.8567437
p5951
ssVVishalnagar C Ward office
p5952
(dp5953
g4
V18.5204303
p5954
sg6
V73.8567437
p5955
ssVKhedshivapur Highschool
p5956
(dp5957
g4
V18.5204303
p5958
sg6
V73.8567437
p5959
ssVNetajinagar 
p5960
(dp5961
g4
V18.5879955
p5962
sg6
V73.8156232
p5963
ssVGujarwadi Phata
p5964
(dp5965
g4
V18.5204303
p5966
sg6
V73.8567437
p5967
ssVNavi Sangvi
p5968
(dp5969
g4
V18.5811384
p5970
sg6
V73.8155658
p5971
ssVNew Life
p5972
(dp5973
g4
V18.5020513
p5974
sg6
V73.8723895
p5975
ssVST Stand Gram Panchayat Talegaon
p5976
(dp5977
g4
V18.7167
p5978
sg6
V73.6833
p5979
ssVForest Office Road
p5980
(dp5981
g4
V18.5204303
p5982
sg6
V73.8567437
p5983
ssVSubhanshah Darga
p5984
(dp5985
g4
V18.5204303
p5986
sg6
V73.8567437
p5987
ssVGondhalenagar
p5988
(dp5989
g4
V18.494128
p5990
sg6
V73.946694
p5991
ssVRamanbag
p5992
(dp5993
g4
V18.4962948
p5994
sg6
V73.8437247
p5995
ssVZ F Stearing Company
p5996
(dp5997
g4
V18.5204303
p5998
sg6
V73.8567437
p5999
ssVPoolachi wadi
p6000
(dp6001
g4
V18.5204303
p6002
sg6
V73.8567437
p6003
ssVVikrikar karyalaya
p6004
(dp6005
g4
V18.5204303
p6006
sg6
V73.8567437
p6007
ssVZila Parishad School Yewlewadi
p6008
(dp6009
g4
V18.5204303
p6010
sg6
V73.8567437
p6011
ssVKasturba School Wadia
p6012
(dp6013
g4
V18.5204303
p6014
sg6
V73.8567437
p6015
ssVP and T colony
p6016
(dp6017
g4
V18.494252
p6018
sg6
V73.857966
p6019
ssVSoos gaon
p6020
(dp6021
g4
V18.5436733
p6022
sg6
V73.7844514
p6023
ssVForbes marshal stop
p6024
(dp6025
g4
V18.601114
p6026
sg6
V73.826804
p6027
ssVGurushankar math
p6028
(dp6029
g4
V18.5204303
p6030
sg6
V73.8567437
p6031
ssVKudale Farm
p6032
(dp6033
g4
V18.5204303
p6034
sg6
V73.8567437
p6035
ssVKalbhor nahar bus stop
p6036
(dp6037
g4
V18.646916
p6038
sg6
V73.788385
p6039
ssVSuply depot
p6040
(dp6041
g4
V18.565143
p6042
sg6
V73.850239
p6043
ssVJambhe Prathamik Shala
p6044
(dp6045
g4
V18.5204303
p6046
sg6
V73.8567437
p6047
ssVAkurdi khandoba chauk
p6048
(dp6049
g4
V18.649997
p6050
sg6
V73.785165
p6051
ssVVitthalwadi jakat naka
p6052
(dp6053
g4
V18.5204303
p6054
sg6
V73.8567437
p6055
ssVGosavi wasti
p6056
(dp6057
g4
V18.5091472
p6058
sg6
V73.9459015
p6059
ssVSanakata company
p6060
(dp6061
g4
V18.5204303
p6062
sg6
V73.8567437
p6063
ssVGokhale Mala Sankalpa Garden
p6064
(dp6065
g4
V18.5204303
p6066
sg6
V73.8567437
p6067
ssVPower house bhosari
p6068
(dp6069
g4
V18.631696
p6070
sg6
V73.830628
p6071
ssVBalewadi Phata
p6072
(dp6073
g4
V18.563405
p6074
sg6
V73.783134
p6075
ssVSadesataranali
p6076
(dp6077
g4
V18.5141791
p6078
sg6
V73.9499426
p6079
ssVKawdewasti
p6080
(dp6081
g4
V18.5204303
p6082
sg6
V73.8567437
p6083
ssVDeichi Company
p6084
(dp6085
g4
V18.5204303
p6086
sg6
V73.8567437
p6087
ssVJahangir Hospital
p6088
(dp6089
g4
V18.5303557
p6090
sg6
V73.8766965
p6091
ssVGPO
p6092
(dp6093
g4
V18.523517
p6094
sg6
V73.87549
p6095
ssVVitbhatti Sinhgad Road
p6096
(dp6097
g4
V18.492252
p6098
sg6
V73.834255
p6099
ssVDharmanagar 5 va Mail
p6100
(dp6101
g4
V18.5204303
p6102
sg6
V73.8567437
p6103
ssVAnnasaheb magar vidya mandir
p6104
(dp6105
g4
V18.5204303
p6106
sg6
V73.8567437
p6107
ssVSindhu Park
p6108
(dp6109
g4
V18.6002151
p6110
sg6
V73.7938405
p6111
ssVSangvi Company
p6112
(dp6113
g4
V18.269826
p6114
sg6
V73.880271
p6115
ssVBhumkar Nagar
p6116
(dp6117
g4
V18.449303
p6118
sg6
V73.834354
p6119
ssVTelco godown
p6120
(dp6121
g4
V18.620916
p6122
sg6
V73.874102
p6123
ssVOfficers Mess
p6124
(dp6125
g4
V18.590694
p6126
sg6
V73.91543
p6127
ssVBotanical garden
p6128
(dp6129
g4
V18.565536
p6130
sg6
V73.82446
p6131
ssVSambhaji Chowk Ganesh Nagar
p6132
(dp6133
g4
V18.5111468
p6134
sg6
V73.8371508
p6135
ssVInfosys Phase 2
p6136
(dp6137
g4
V18.593565
p6138
sg6
V73.708268
p6139
ssVNew hind school
p6140
(dp6141
g4
V18.5204303
p6142
sg6
V73.8567437
p6143
ssVBapurao Smarak
p6144
(dp6145
g4
V18.5204303
p6146
sg6
V73.8567437
p6147
ssVKonark Nagar
p6148
(dp6149
g4
V18.569903
p6150
sg6
V73.911136
p6151
ssVKothari Corner
p6152
(dp6153
g4
V18.5204303
p6154
sg6
V73.8567437
p6155
ssVYashwant nagar corner
p6156
(dp6157
g4
V18.5402962
p6158
sg6
V73.8338086
p6159
ssVMammadevi Chowk
p6160
(dp6161
g4
V18.5204303
p6162
sg6
V73.8567437
p6163
ssVKachare wasti
p6164
(dp6165
g4
V18.533485
p6166
sg6
V73.920663
p6167
ssVKondhava Khurd
p6168
(dp6169
g4
V18.4687712
p6170
sg6
V73.8830701
p6171
ssVTalegoan phata
p6172
(dp6173
g4
V18.7155
p6174
sg6
V73.675447
p6175
ssVkaran Park
p6176
(dp6177
g4
V18.5550453
p6178
sg6
V73.9214504
p6179
ssVPetrol Pump Rajendranagar
p6180
(dp6181
g4
V18.510551
p6182
sg6
V73.834878
p6183
ssVMahatma gandhi stand
p6184
(dp6185
g4
V18.5204303
p6186
sg6
V73.8567437
p6187
ssVGokul Nagar 
p6188
(dp6189
g4
V18.5877162
p6190
sg6
V73.8885824
p6191
ssVSaswad stand
p6192
(dp6193
g4
V18.349877
p6194
sg6
V74.028861
p6195
ssVWakvasti
p6196
(dp6197
g4
V18.491042
p6198
sg6
V74.007742
p6199
ssVSamartha Vidyalaya Wadgaon Maval
p6200
(dp6201
g4
V18.7562767
p6202
sg6
V73.456324
p6203
ssVPimpri chauk Bus stop
p6204
(dp6205
g4
V18.626748
p6206
sg6
V73.805523
p6207
ssVAjantha nagar corner
p6208
(dp6209
g4
V18.664508
p6210
sg6
V73.786573
p6211
ssVKRB Workshop
p6212
(dp6213
g4
V18.5204303
p6214
sg6
V73.8567437
p6215
ssVVasantdada Putala
p6216
(dp6217
g4
V18.57575
p6218
sg6
V73.826094
p6219
ssVAnant Talkies
p6220
(dp6221
g4
V18.529399
p6222
sg6
V73.902506
p6223
ssVBajaj Mhalunge
p6224
(dp6225
g4
V18.5204303
p6226
sg6
V73.8567437
p6227
ssVNew pmc school
p6228
(dp6229
g4
V18.5204303
p6230
sg6
V73.8567437
p6231
ssVDnyaneshwar paduka chauk
p6232
(dp6233
g4
V18.5204303
p6234
sg6
V73.8567437
p6235
ssVAmbedkar Society
p6236
(dp6237
g4
V18.552213
p6238
sg6
V73.87295
p6239
ssVShamal Rose Nursery
p6240
(dp6241
g4
V18.5204303
p6242
sg6
V73.8567437
p6243
ssVSupply Depot
p6244
(dp6245
g4
V18.565143
p6246
sg6
V73.850239
p6247
ssVSangvi phata
p6248
(dp6249
g4
V18.572723
p6250
sg6
V73.807171
p6251
ssVRavinagar Tapkir wasti
p6252
(dp6253
g4
V18.553406
p6254
sg6
V73.75384
p6255
ssVPushp Mangal karyalaya
p6256
(dp6257
g4
V18.486623
p6258
sg6
V73.858156
p6259
ssVLokmangal 
p6260
(dp6261
g4
V18.530071
p6262
sg6
V73.850827
p6263
ssVKarandi gaon
p6264
(dp6265
g4
V18.728978
p6266
sg6
V74.061998
p6267
ssVDeccan Gymkhana
p6268
(dp6269
g4
V18.5183409
p6270
sg6
V73.840436
p6271
ssVWarje Gaon Nasrapur Road
p6272
(dp6273
g4
V18.5204303
p6274
sg6
V73.8567437
p6275
ssVS T Divisional office
p6276
(dp6277
g4
V18.5312837
p6278
sg6
V73.8478869
p6279
ssVKondhva Khurd
p6280
(dp6281
g4
V18.4687712
p6282
sg6
V73.8830701
p6283
ssVSangamwadi shala
p6284
(dp6285
g4
V18.5204303
p6286
sg6
V73.8567437
p6287
ssVBalaji super market
p6288
(dp6289
g4
V18.5204303
p6290
sg6
V73.8567437
p6291
ssVD.Y.Patil corner
p6292
(dp6293
g4
V18.4471665
p6294
sg6
V73.8108211
p6295
ssVESI Hospital
p6296
(dp6297
g4
V18.484071
p6298
sg6
V73.859721
p6299
ssVDehugaon grampanchayat
p6300
(dp6301
g4
V18.717599
p6302
sg6
V73.76779
p6303
ssVRaja Bungalow
p6304
(dp6305
g4
V18.551905
p6306
sg6
V73.849493
p6307
ssVPanyachi taki sangvi
p6308
(dp6309
g4
V18.575547
p6310
sg6
V73.815303
p6311
ssVAvinash Mangal Karyalaya
p6312
(dp6313
g4
V18.5204303
p6314
sg6
V73.8567437
p6315
ssVBaner phata
p6316
(dp6317
g4
V18.550499
p6318
sg6
V73.80954
p6319
ssVDhamale wasti Mundhva
p6320
(dp6321
g4
V18.5204303
p6322
sg6
V73.8567437
p6323
ssVDevpari Maharaj Mandir
p6324
(dp6325
g4
V18.5204303
p6326
sg6
V73.8567437
p6327
ssVLakshminagar Corner
p6328
(dp6329
g4
V18.5204303
p6330
sg6
V73.8567437
p6331
ssVJadhavwadi 
p6332
(dp6333
g4
V18.7787421
p6334
sg6
V73.7227774
p6335
ssVUpper Indiranagar
p6336
(dp6337
g4
V18.467767
p6338
sg6
V73.8632243
p6339
ssVBank of Maharashtra 
p6340
(dp6341
g4
V18.529951
p6342
sg6
V73.851043
p6343
ssVS T Workshop
p6344
(dp6345
g4
V19.200565
p6346
sg6
V72.973287
p6347
ssVKumbhar wada
p6348
(dp6349
g4
V18.536592
p6350
sg6
V73.9425951
p6351
ssVGondhalenagr
p6352
(dp6353
g4
V18.5204303
p6354
sg6
V73.8567437
p6355
ssVSindh colony gate 2
p6356
(dp6357
g4
V18.5204303
p6358
sg6
V73.8567437
p6359
ssVVetal Maharaj chauk
p6360
(dp6361
g4
V18.5204303
p6362
sg6
V73.8567437
p6363
ssVADP pune
p6364
(dp6365
g4
V18.4895498
p6366
sg6
V73.9535244
p6367
ssVShivanand Enclave Company
p6368
(dp6369
g4
V18.5204303
p6370
sg6
V73.8567437
p6371
ssVIndraprabha mamurdi
p6372
(dp6373
g4
V18.6745203
p6374
sg6
V73.7168927
p6375
ssVMauli bangala
p6376
(dp6377
g4
V18.5006674
p6378
sg6
V73.9524683
p6379
ssVMahesh vidyalaya
p6380
(dp6381
g4
V18.5204303
p6382
sg6
V73.8567437
p6383
ssVJyoti school
p6384
(dp6385
g4
V18.6301835
p6386
sg6
V73.8236171
p6387
ssVParamhansa Corner
p6388
(dp6389
g4
V18.5204303
p6390
sg6
V73.8567437
p6391
ssVVishal nagar C ward office
p6392
(dp6393
g4
V18.5204303
p6394
sg6
V73.8567437
p6395
ssVRangicha wada
p6396
(dp6397
g4
V18.9833329
p6398
sg6
V73.75
p6399
ssVSakore Mala
p6400
(dp6401
g4
V18.5204303
p6402
sg6
V73.8567437
p6403
ssVAlandi bus stand
p6404
(dp6405
g4
V18.674405
p6406
sg6
V73.8972404
p6407
ssVKoyali Phata
p6408
(dp6409
g4
V18.5204303
p6410
sg6
V73.8567437
p6411
ssVKudba kruti Manmohan
p6412
(dp6413
g4
V18.5204303
p6414
sg6
V73.8567437
p6415
ssVPrachi
p6416
(dp6417
g4
V18.645269
p6418
sg6
V73.770629
p6419
ssVRamoshi gate
p6420
(dp6421
g4
V18.510843
p6422
sg6
V73.868377
p6423
ssVSainikwadi
p6424
(dp6425
g4
V18.5515816
p6426
sg6
V73.9161418
p6427
ssVMorya Gosavi raj park
p6428
(dp6429
g4
V18.6204038
p6430
sg6
V73.784419
p6431
ssVDnyaneshwar Bhint
p6432
(dp6433
g4
V18.5204303
p6434
sg6
V73.8567437
p6435
ssVMantri niketan Dapodi
p6436
(dp6437
g4
V18.5801598
p6438
sg6
V73.8304653
p6439
ssVRaviraj residency
p6440
(dp6441
g4
V18.5204303
p6442
sg6
V73.8567437
p6443
ssVGorhe bu. jeevan shikshan mandir
p6444
(dp6445
g4
V18.5204303
p6446
sg6
V73.8567437
p6447
ssVKhadaki railway station
p6448
(dp6449
g4
V18.5631806
p6450
sg6
V73.8406198
p6451
ssVPaudphata police chowky
p6452
(dp6453
g4
V18.5069
p6454
sg6
V73.823727
p6455
ssVBhilarwadi chauk
p6456
(dp6457
g4
V18.5204303
p6458
sg6
V73.8567437
p6459
ssVLakshmi Provision Stores
p6460
(dp6461
g4
V18.5204303
p6462
sg6
V73.8567437
p6463
ssVJanakbaba Darga
p6464
(dp6465
g4
V18.564873
p6466
sg6
V73.943693
p6467
ssVPCMT chauk
p6468
(dp6469
g4
V18.620129
p6470
sg6
V73.85043
p6471
ssVAirport
p6472
(dp6473
g4
V18.5862229
p6474
sg6
V73.9193407
p6475
ssVKrushnai Mangal Karyalaya
p6476
(dp6477
g4
V18.5204303
p6478
sg6
V73.8567437
p6479
ssVChakan Phata
p6480
(dp6481
g4
V18.734027
p6482
sg6
V73.946583
p6483
ssVVijay Talkies
p6484
(dp6485
g4
V18.513845
p6486
sg6
V73.846962
p6487
ssVGolibar maidan
p6488
(dp6489
g4
V18.50242
p6490
sg6
V73.87717
p6491
ssVKhadki Bazar
p6492
(dp6493
g4
V18.5667
p6494
sg6
V73.8667
p6495
ssVKrushna Mandir Dehu Road
p6496
(dp6497
g4
V18.6821027
p6498
sg6
V73.7316304
p6499
ssVKachara depot
p6500
(dp6501
g4
V18.507438
p6502
sg6
V73.799911
p6503
ssVDeccan corner sambhaji pool
p6504
(dp6505
g4
V18.513793
p6506
sg6
V73.841438
p6507
ssVStar garden
p6508
(dp6509
g4
V18.475317
p6510
sg6
V73.816215
p6511
ssVLieson Company
p6512
(dp6513
g4
V18.5204303
p6514
sg6
V73.8567437
p6515
ssVSonya Maruti Chowk
p6516
(dp6517
g4
V18.515925
p6518
sg6
V73.860553
p6519
ssVKopo Phata Bormal
p6520
(dp6521
g4
V18.5204303
p6522
sg6
V73.8567437
p6523
ssVBavdhan Khind 
p6524
(dp6525
g4
V18.4973349
p6526
sg6
V73.7886276
p6527
ssVWadi 10 Mail Phata 
p6528
(dp6529
g4
V18.5204303
p6530
sg6
V73.8567437
p6531
ssVPashan gaon
p6532
(dp6533
g4
V18.5396184
p6534
sg6
V73.7955869
p6535
ssVShivratn Mangal Karyalaya
p6536
(dp6537
g4
V18.5204303
p6538
sg6
V73.8567437
p6539
ssVAshok Talkies
p6540
(dp6541
g4
V18.614905
p6542
sg6
V73.804088
p6543
ssVHadapsar gadital
p6544
(dp6545
g4
V18.5005778
p6546
sg6
V73.9425951
p6547
ssVP W D Gate
p6548
(dp6549
g4
V18.5556776
p6550
sg6
V73.8302905
p6551
ssVSopan Bag 
p6552
(dp6553
g4
V18.5144365
p6554
sg6
V73.8998307
p6555
ssVD2 Circle
p6556
(dp6557
g4
V18.531395
p6558
sg6
V73.811645
p6559
ssVKesanand phata
p6560
(dp6561
g4
V18.5730161
p6562
sg6
V74.0216544
p6563
ssVDamodar nagar
p6564
(dp6565
g4
V18.5089382
p6566
sg6
V73.8275705
p6567
ssVSuvarna Fabricators
p6568
(dp6569
g4
V18.5204303
p6570
sg6
V73.8567437
p6571
ssVST Stand Chakan Road
p6572
(dp6573
g4
V18.7545716
p6574
sg6
V73.8601774
p6575
ssVAzadnagar
p6576
(dp6577
g4
V18.484198
p6578
sg6
V73.905517
p6579
ssVBoys Batalian
p6580
(dp6581
g4
V18.560308
p6582
sg6
V73.815169
p6583
ssVHRA relance
p6584
(dp6585
g4
V18.5204303
p6586
sg6
V73.8567437
p6587
ssV15 August Lodge Somwar Peth
p6588
(dp6589
g4
V18.5214325
p6590
sg6
V73.8676347
p6591
ssVHarijan wasti
p6592
(dp6593
g4
V18.5204303
p6594
sg6
V73.8567437
p6595
ssVNagpur Chawl
p6596
(dp6597
g4
V18.5629104
p6598
sg6
V73.8939134
p6599
ssVKiwale
p6600
(dp6601
g4
V18.659071
p6602
sg6
V73.7213063
p6603
ssVSaurabh company tambe company
p6604
(dp6605
g4
V18.5204303
p6606
sg6
V73.8567437
p6607
ssVLohoan
p6608
(dp6609
g4
V18.5204303
p6610
sg6
V73.8567437
p6611
ssVARDE Colony
p6612
(dp6613
g4
V18.5204303
p6614
sg6
V73.8567437
p6615
ssVMaharashtra Housing Yerwada
p6616
(dp6617
g4
V18.561671
p6618
sg6
V73.89676
p6619
ssVChaitanya bangala
p6620
(dp6621
g4
V18.5204303
p6622
sg6
V73.8567437
p6623
ssVSamadhi mandir
p6624
(dp6625
g4
V19.2760507
p6626
sg6
V73.9817566
p6627
ssVSadanand nagar
p6628
(dp6629
g4
V18.52235
p6630
sg6
V73.865135
p6631
ssVAkshay Sunshri
p6632
(dp6633
g4
V18.5204303
p6634
sg6
V73.8567437
p6635
ssVWakad phata 
p6636
(dp6637
g4
V18.587968
p6638
sg6
V73.789228
p6639
ssVKalbhor wasti solapur rd.
p6640
(dp6641
g4
V18.5062211
p6642
sg6
V73.9126174
p6643
ssVTilekar wasti
p6644
(dp6645
g4
V18.507555
p6646
sg6
V73.9275318
p6647
ssVWakad Chowk
p6648
(dp6649
g4
V18.608753
p6650
sg6
V73.750792
p6651
ssVNarhe Ambegaon
p6652
(dp6653
g4
V18.450954
p6654
sg6
V73.837548
p6655
ssVWarje Gaon Highway
p6656
(dp6657
g4
V18.480297
p6658
sg6
V73.805065
p6659
ssVKSB chauk
p6660
(dp6661
g4
V18.649634
p6662
sg6
V73.809226
p6663
ssVGoodluck Chowk 
p6664
(dp6665
g4
V18.518055
p6666
sg6
V73.84146
p6667
ssVKhed
p6668
(dp6669
g4
V18.8550308
p6670
sg6
V73.8874991
p6671
ssVKalewadi phata
p6672
(dp6673
g4
V18.603829
p6674
sg6
V73.776539
p6675
ssVPickock Bay
p6676
(dp6677
g4
V18.4372491
p6678
sg6
V73.7505438
p6679
ssVIndira Institute
p6680
(dp6681
g4
V18.5308225
p6682
sg6
V73.8474647
p6683
ssVEmployment Office
p6684
(dp6685
g4
V18.523328
p6686
sg6
V73.869116
p6687
ssVRailway Gate Aata Mill Karkhana 
p6688
(dp6689
g4
V18.5204303
p6690
sg6
V73.8567437
p6691
ssVGhavate nagar
p6692
(dp6693
g4
V18.5204303
p6694
sg6
V73.8567437
p6695
ssVSymbiosis college
p6696
(dp6697
g4
V18.5650686
p6698
sg6
V73.9104599
p6699
ssVSasane Hingane township
p6700
(dp6701
g4
V18.5204303
p6702
sg6
V73.8567437
p6703
ssVMangesh nagar
p6704
(dp6705
g4
V18.5204303
p6706
sg6
V73.8567437
p6707
ssVCOD corner
p6708
(dp6709
g4
V18.5204303
p6710
sg6
V73.8567437
p6711
ssVAmbegaon Highway
p6712
(dp6713
g4
V18.4472598
p6714
sg6
V73.8588438
p6715
ssVYCM
p6716
(dp6717
g4
V18.620096
p6718
sg6
V73.817734
p6719
ssVGawade wasti
p6720
(dp6721
g4
V18.538569
p6722
sg6
V73.709808
p6723
ssVShivarkar gardan
p6724
(dp6725
g4
V18.50475
p6726
sg6
V73.901053
p6727
ssVshimala office shivajinagar
p6728
(dp6729
g4
V18.5308225
p6730
sg6
V73.8474647
p6731
ssVDighi Corner Odha
p6732
(dp6733
g4
V18.5204303
p6734
sg6
V73.8567437
p6735
ssVSaurabh company Tambe Shala
p6736
(dp6737
g4
V18.5204303
p6738
sg6
V73.8567437
p6739
ssVWadaki nala 
p6740
(dp6741
g4
V18.426759
p6742
sg6
V73.98168
p6743
ssVSambhaji chauk Ganesh nagar
p6744
(dp6745
g4
V18.5111468
p6746
sg6
V73.8371508
p6747
ssVS P college
p6748
(dp6749
g4
V18.5068061
p6750
sg6
V73.8485225
p6751
ssVRupinagar
p6752
(dp6753
g4
V18.6799777
p6754
sg6
V73.7867629
p6755
ssVBirla hospital
p6756
(dp6757
g4
V18.62579
p6758
sg6
V73.774995
p6759
ssVShinde wasti
p6760
(dp6761
g4
V18.6216954
p6762
sg6
V73.9602287
p6763
ssVGolewadi
p6764
(dp6765
g4
V18.5204303
p6766
sg6
V73.8567437
p6767
ssVWastu Udyog
p6768
(dp6769
g4
V18.6328814
p6770
sg6
V73.8180835
p6771
ssVSainathnagar Mundhava
p6772
(dp6773
g4
V18.532675
p6774
sg6
V73.932838
p6775
ssVLieson company
p6776
(dp6777
g4
V18.5204303
p6778
sg6
V73.8567437
p6779
ssVKondhanpur Gaon
p6780
(dp6781
g4
V18.5204303
p6782
sg6
V73.8567437
p6783
ssVDehugaon Grampanchayat
p6784
(dp6785
g4
V18.717599
p6786
sg6
V73.76779
p6787
ssVVishrant Dham
p6788
(dp6789
g4
V18.5204303
p6790
sg6
V73.8567437
p6791
ssVPMC
p6792
(dp6793
g4
V18.522643
p6794
sg6
V73.852949
p6795
ssVKendriya vidyalaya
p6796
(dp6797
g4
V18.4701033
p6798
sg6
V73.7641497
p6799
ssVShivapur Bag Post office
p6800
(dp6801
g4
V18.5204303
p6802
sg6
V73.8567437
p6803
ssVDarshan hall
p6804
(dp6805
g4
V18.629409
p6806
sg6
V73.786666
p6807
ssVWonder funkey
p6808
(dp6809
g4
V18.5204303
p6810
sg6
V73.8567437
p6811
ssVDonger Matha
p6812
(dp6813
g4
V18.5204303
p6814
sg6
V73.8567437
p6815
ssVOswal Estate
p6816
(dp6817
g4
V18.5204303
p6818
sg6
V73.8567437
p6819
ssVIngale hospital
p6820
(dp6821
g4
V18.618376
p6822
sg6
V73.792043
p6823
ssVKarachi chauk
p6824
(dp6825
g4
V18.5204303
p6826
sg6
V73.8567437
p6827
ssVRajgurunagar Vidyalaya
p6828
(dp6829
g4
V18.5204303
p6830
sg6
V73.8567437
p6831
ssVMSEB Khadki 
p6832
(dp6833
g4
V18.5684078
p6834
sg6
V73.8813484
p6835
ssVGhule Wasti 
p6836
(dp6837
g4
V18.5095721
p6838
sg6
V73.9591266
p6839
ssVPaygude wasti Donje
p6840
(dp6841
g4
V18.5204303
p6842
sg6
V73.8567437
p6843
ssVAbhi Chemicals
p6844
(dp6845
g4
V18.5204303
p6846
sg6
V73.8567437
p6847
ssVSadu nana wasti
p6848
(dp6849
g4
V18.506761
p6850
sg6
V73.94
p6851
ssVMathyadist Church
p6852
(dp6853
g4
V18.5583604
p6854
sg6
V73.8546091
p6855
ssVInfosys Phase 3 Gawarwadi
p6856
(dp6857
g4
V18.5204303
p6858
sg6
V73.8567437
p6859
ssVServents Quarters
p6860
(dp6861
g4
V18.5204303
p6862
sg6
V73.8567437
p6863
ssVDefence Colony
p6864
(dp6865
g4
V18.6020503
p6866
sg6
V73.9328098
p6867
ssVProtact Company
p6868
(dp6869
g4
V18.5204303
p6870
sg6
V73.8567437
p6871
ssVVidi Kamgar Vasahat
p6872
(dp6873
g4
V18.557215
p6874
sg6
V73.932279
p6875
ssVWakhar Mahamandal Bhosari
p6876
(dp6877
g4
V18.6385292
p6878
sg6
V73.8477874
p6879
ssVIshanya Nagari
p6880
(dp6881
g4
V18.487678
p6882
sg6
V73.802842
p6883
ssVDurvankur soc
p6884
(dp6885
g4
V18.49038
p6886
sg6
V73.936074
p6887
ssVKranti Society
p6888
(dp6889
g4
V18.4844946
p6890
sg6
V73.8444793
p6891
ssVWanvadi Bazar 
p6892
(dp6893
g4
V18.495112
p6894
sg6
V73.894591
p6895
ssVSanti company
p6896
(dp6897
g4
V18.5204303
p6898
sg6
V73.8567437
p6899
ssVSurgeon quarters
p6900
(dp6901
g4
V18.5204303
p6902
sg6
V73.8567437
p6903
ssVKekan ges agency
p6904
(dp6905
g4
V18.5204303
p6906
sg6
V73.8567437
p6907
ssVRaysoni Farm
p6908
(dp6909
g4
V18.5204303
p6910
sg6
V73.8567437
p6911
ssVAmbegaon Phata
p6912
(dp6913
g4
V18.448084
p6914
sg6
V73.8308919
p6915
ssVGuruganesh Nagar
p6916
(dp6917
g4
V18.5041413
p6918
sg6
V73.7994473
p6919
ssVKrutrim Reshim Paidas Kendra
p6920
(dp6921
g4
V18.549212
p6922
sg6
V73.8509
p6923
ssVAlandi jakat naka
p6924
(dp6925
g4
V18.5204303
p6926
sg6
V73.8567437
p6927
ssVAaimata Mandir
p6928
(dp6929
g4
V18.471058
p6930
sg6
V73.87523
p6931
ssVBopodi Gaon
p6932
(dp6933
g4
V18.5639463
p6934
sg6
V73.8102927
p6935
ssVNhavi Sandas
p6936
(dp6937
g4
V18.6173028
p6938
sg6
V74.1680347
p6939
ssVKatepuram
p6940
(dp6941
g4
V18.585788
p6942
sg6
V73.816376
p6943
ssVPan mala Sinhgad Road
p6944
(dp6945
g4
V18.500738
p6946
sg6
V73.844967
p6947
ssVJakatnaka Pavanapool
p6948
(dp6949
g4
V18.5204303
p6950
sg6
V73.8567437
p6951
ssVMate Pat Sasa company
p6952
(dp6953
g4
V18.5204303
p6954
sg6
V73.8567437
p6955
ssVPMC School Pimpri
p6956
(dp6957
g4
V18.5675343
p6958
sg6
V73.8813614
p6959
ssVIngale Hospital
p6960
(dp6961
g4
V18.618376
p6962
sg6
V73.792043
p6963
ssVPanyachi Taki Pimple Gurav
p6964
(dp6965
g4
V18.575547
p6966
sg6
V73.815303
p6967
ssVRautwadi
p6968
(dp6969
g4
V18.7161991
p6970
sg6
V73.5526032
p6971
ssVPawana pul Rawet
p6972
(dp6973
g4
V18.5204303
p6974
sg6
V73.8567437
p6975
ssVGhenand wasti
p6976
(dp6977
g4
V18.698903
p6978
sg6
V73.919908
p6979
ssVDeccan corner sambhaji pul
p6980
(dp6981
g4
V18.513793
p6982
sg6
V73.841438
p6983
ss.