ccopy_reg
_reconstructor
p1
(cdjango.db.models.query
ValuesQuerySet
p2
c__builtin__
object
p3
NtRp4
(dp5
S'_iter'
p6
NsS'_prefetch_related_lookups'
p7
(lp8
sS'aggregate_names'
p9
NsS'_sticky_filter'
p10
I00
sS'extra_names'
p11
NsS'_db'
p12
NsS'_result_cache'
p13
(lp14
(dp15
S'latitude'
p16
V18.5204303
p17
sS'id'
p18
I1527
sS'longitude'
p19
V73.8567437
p20
sS'name'
p21
VKudba kruti Manmohan
p22
sa(dp23
g16
V18.5204303
p24
sg18
I6
sg19
V73.8567437
p25
sg21
VChorex Company
p26
sa(dp27
g16
V18.5343
p28
sg18
I7
sg19
V73.839673
p29
sg21
VI B P Pump
p30
sa(dp31
g16
V18.7642867
p32
sg18
I9
sg19
V73.8360251
p33
sg21
VKharabwadi
p34
sa(dp35
g16
V18.5204303
p36
sg18
I10
sg19
V73.8567437
p37
sg21
VRanubai Mala
p38
sa(dp39
g16
V18.5204303
p40
sg18
I12
sg19
V73.8567437
p41
sg21
VTalegaon Phata ST Stand
p42
sa(dp43
g16
V18.414299
p44
sg18
I13
sg19
V73.762883
p45
sg21
VPetrol Pump
p46
sa(dp47
g16
V18.731698
p48
sg18
I14
sg19
V73.856187
p49
sg21
VAlandi Phata
p50
sa(dp51
g16
V18.53273
p52
sg18
I16
sg19
V73.91821
p53
sg21
VGaikwad wasti 
p54
sa(dp55
g16
V18.5204303
p56
sg18
I18
sg19
V73.8567437
p57
sg21
VHood company
p58
sa(dp59
g16
V18.6765
p60
sg18
I19
sg19
V73.849568
p61
sg21
VMoshi goan
p62
sa(dp63
g16
V18.5204303
p64
sg18
I20
sg19
V73.8567437
p65
sg21
VChaudhari dhaba
p66
sa(dp67
g16
V18.671378
p68
sg18
I21
sg19
V73.848265
p69
sg21
VBankar Vasti Moshi
p70
sa(dp71
g16
V18.662099
p72
sg18
I23
sg19
V73.848475
p73
sg21
VJuna Jakat naka
p74
sa(dp75
g16
V18.5204303
p76
sg18
I24
sg19
V73.8567437
p77
sg21
VTan Protex
p78
sa(dp79
g16
V18.6422569
p80
sg18
I26
sg19
V73.8512792
p81
sg21
VPanjarpol
p82
sa(dp83
g16
V18.632208
p84
sg18
I27
sg19
V73.849931
p85
sg21
VSadgurunagar PCMT depot 
p86
sa(dp87
g16
V18.6148921
p88
sg18
I29
sg19
V73.8472361
p89
sg21
VCentury Enka Colony 
p90
sa(dp91
g16
V18.6220387
p92
sg18
I30
sg19
V73.840436
p93
sg21
VLandewadi
p94
sa(dp95
g16
V18.6388707
p96
sg18
I32
sg19
V73.7779386
p97
sg21
VMIDC Bhosari
p98
sa(dp99
g16
V18.617412
p100
sg18
I33
sg19
V73.825929
p101
sg21
VBhosari police station
p102
sa(dp103
g16
V18.6060873
p104
sg18
I35
sg19
V73.8227917
p105
sg21
VKasarwadi
p106
sa(dp107
g16
V18.601114
p108
sg18
I36
sg19
V73.826804
p109
sg21
VForbes marshal stop
p110
sa(dp111
g16
V18.593351
p112
sg18
I38
sg19
V73.829863
p113
sg21
VSandwik
p114
sa(dp115
g16
V18.586909
p116
sg18
I39
sg19
V73.833146
p117
sg21
VFugewadi
p118
sa(dp119
g16
V18.583816
p120
sg18
I40
sg19
V73.8316141
p121
sg21
VDapodi
p122
sa(dp123
g16
V18.5667907
p124
sg18
I42
sg19
V73.8345548
p125
sg21
VBopodi
p126
sa(dp127
g16
V18.5667
p128
sg18
I43
sg19
V73.8667
p129
sg21
VKhadaki
p130
sa(dp131
g16
V18.5667
p132
sg18
I45
sg19
V73.8667
p133
sg21
VPetrol Pump Khadki
p134
sa(dp135
g16
V18.558521
p136
sg18
I46
sg19
V73.845195
p137
sg21
VKhadaki church stop
p138
sa(dp139
g16
V18.555834
p140
sg18
I47
sg19
V73.847379
p141
sg21
VKhadaki post office
p142
sa(dp143
g16
V18.549212
p144
sg18
I49
sg19
V73.8509
p145
sg21
VKrutrim Reshim Paidas Kendra
p146
sa(dp147
g16
V18.542177
p148
sg18
I51
sg19
V73.851737
p149
sg21
VMariaai Gate Old Mumbai Pune Road
p150
sa(dp151
g16
V18.539814
p152
sg18
I52
sg19
V73.850922
p153
sg21
VBajaj showroom
p154
sa(dp155
g16
V18.534854
p156
sg18
I53
sg19
V73.851396
p157
sg21
VLabor office
p158
sa(dp159
g16
V18.4410707
p160
sg18
I54
sg19
V73.8237039
p161
sg21
VPatil Estate
p162
sa(dp163
g16
V18.524763
p164
sg18
I56
sg19
V73.849404
p165
sg21
VModern Highschool
p166
sa(dp167
g16
V18.522643
p168
sg18
I57
sg19
V73.852949
p169
sg21
VPMC
p170
sa(dp171
g16
V18.527378
p172
sg18
I58
sg19
V73.87636
p173
sg21
VPune Station Depot
p174
sa(dp175
g16
V18.527969
p176
sg18
I60
sg19
V73.874991
p177
sg21
VCollector kacheri
p178
sa(dp179
g16
V18.5253
p180
sg18
I61
sg19
V73.867981
p181
sg21
VAmbedkar bhavan
p182
sa(dp183
g16
V18.536592
p184
sg18
I63
sg19
V73.9425951
p185
sg21
VKumbhar wada
p186
sa(dp187
g16
V18.526617
p188
sg18
I64
sg19
V73.852559
p189
sg21
VShivaji putala pmc
p190
sa(dp191
g16
V18.532468
p192
sg18
I66
sg19
V73.842384
p193
sg21
VMasoba gate
p194
sa(dp195
g16
V18.5343
p196
sg18
I67
sg19
V73.839673
p197
sg21
VPumping station
p198
sa(dp199
g16
V18.534776
p200
sg18
I68
sg19
V73.838998
p201
sg21
VPune central
p202
sa(dp203
g16
V18.5516908
p204
sg18
I70
sg19
V73.8415604
p205
sg21
VRangehills Corner
p206
sa(dp207
g16
V18.5447449
p208
sg18
I71
sg19
V73.8253649
p209
sg21
VRajbhavan
p210
sa(dp211
g16
V18.5204303
p212
sg18
I73
sg19
V73.8567437
p213
sg21
VKasturba vasahat
p214
sa(dp215
g16
V18.559766
p216
sg18
I75
sg19
V73.815308
p217
sg21
VBremen chauk
p218
sa(dp219
g16
V18.563226
p220
sg18
I76
sg19
V73.813331
p221
sg21
VBody gate
p222
sa(dp223
g16
V18.5639463
p224
sg18
I77
sg19
V73.8102927
p225
sg21
VAundh gaon
p226
sa(dp227
g16
V18.575085
p228
sg18
I79
sg19
V73.805075
p229
sg21
VAundh chest hospital
p230
sa(dp231
g16
V18.5765991
p232
sg18
I80
sg19
V73.8044182
p233
sg21
VAundh post office
p234
sa(dp235
g16
V18.5817878
p236
sg18
I82
sg19
V73.7976203
p237
sg21
VRakshak chauk
p238
sa(dp239
g16
V18.5169994
p240
sg18
I83
sg19
V73.8580788
p241
sg21
VMilitary Stores
p242
sa(dp243
g16
V18.5751779
p244
sg18
I85
sg19
V73.7924355
p245
sg21
VJagtap Dairy 
p246
sa(dp247
g16
V18.5927957
p248
sg18
I86
sg19
V73.7698492
p249
sg21
VKaspate Vasti 
p250
sa(dp251
g16
V18.6216754
p252
sg18
I88
sg19
V73.6927378
p253
sg21
V16 Number 
p254
sa(dp255
g16
V18.5687742
p256
sg18
I89
sg19
V73.7709523
p257
sg21
VLaxman nagar
p258
sa(dp259
g16
V18.5004866
p260
sg18
I91
sg19
V73.8668996
p261
sg21
VSwargate
p262
sa(dp263
g16
V18.503197
p264
sg18
I92
sg19
V73.853717
p265
sg21
VSarasbag
p266
sa(dp267
g16
V18.512798
p268
sg18
I94
sg19
V73.852933
p269
sg21
VShanipar
p270
sa(dp271
g16
V18.5111468
p272
sg18
I95
sg19
V73.8371508
p273
sg21
VA B Chowk
p274
sa(dp275
g16
V18.5159203
p276
sg18
I97
sg19
V73.8487982
p277
sg21
VShaniwar wada
p278
sa(dp279
g16
V18.523954
p280
sg18
I98
sg19
V73.85418
p281
sg21
VPMC mangala
p282
sa(dp283
g16
V18.532448
p284
sg18
I99
sg19
V73.849456
p285
sg21
VShivaji nagar ST Stand
p286
sa(dp287
g16
V18.5204303
p288
sg18
I101
sg19
V73.8567437
p289
sg21
VBalgandharv sambhaji par
p290
sa(dp291
g16
V18.513793
p292
sg18
I103
sg19
V73.841438
p293
sg21
VDeccan Corner Sambhaji Pul Corner
p294
sa(dp295
g16
V18.512356
p296
sg18
I104
sg19
V73.838561
p297
sg21
VGarware college
p298
sa(dp299
g16
V18.509019
p300
sg18
I106
sg19
V73.831963
p301
sg21
VNal Stop
p302
sa(dp303
g16
V18.5089382
p304
sg18
I107
sg19
V73.8275705
p305
sg21
VSNDT college
p306
sa(dp307
g16
V18.503754
p308
sg18
I109
sg19
V73.820291
p309
sg21
VMaruti mandir karve road
p310
sa(dp311
g16
V18.502256
p312
sg18
I110
sg19
V73.816181
p313
sg21
VKarve putala
p314
sa(dp315
g16
V18.499756
p316
sg18
I111
sg19
V73.813639
p317
sg21
VKothrud Stand
p318
sa(dp319
g16
V18.5204303
p320
sg18
I113
sg19
V73.8567437
p321
sg21
VWadache Jhad Bhairavnath Mandir
p322
sa(dp323
g16
V18.4903696
p324
sg18
I114
sg19
V73.8169099
p325
sg21
VKarvenagar
p326
sa(dp327
g16
V18.484655
p328
sg18
I115
sg19
V73.810415
p329
sg21
VWarje Jakatnaka
p330
sa(dp331
g16
V18.506133
p332
sg18
I117
sg19
V73.85275
p333
sg21
VMadiwale colony
p334
sa(dp335
g16
V18.5068061
p336
sg18
I118
sg19
V73.8485225
p337
sg21
VS P college
p338
sa(dp339
g16
V18.5204303
p340
sg18
I120
sg19
V73.8567437
p341
sg21
VSahitya parishad peru gate
p342
sa(dp343
g16
V18.518055
p344
sg18
I121
sg19
V73.84146
p345
sg21
VGoodluck Chowk 
p346
sa(dp347
g16
V18.516436
p348
sg18
I122
sg19
V73.773213
p349
sg21
VF C College
p350
sa(dp351
g16
V18.530071
p352
sg18
I124
sg19
V73.850827
p353
sg21
VLokmangal 
p354
sa(dp355
g16
V18.534854
p356
sg18
I125
sg19
V73.851396
p357
sg21
VLabour office
p358
sa(dp359
g16
V18.552049
p360
sg18
I127
sg19
V73.856389
p361
sg21
VMula road bhaiyawadi
p362
sa(dp363
g16
V18.5204303
p364
sg18
I128
sg19
V73.8567437
p365
sg21
VPachawadw
p366
sa(dp367
g16
V18.5204303
p368
sg18
I129
sg19
V73.8567437
p369
sg21
VHolkar Water Supply 
p370
sa(dp371
g16
V18.548279
p372
sg18
I131
sg19
V73.871937
p373
sg21
VDeccan college 
p374
sa(dp375
g16
V18.552213
p376
sg18
I132
sg19
V73.87295
p377
sg21
VAmbedkar Society
p378
sa(dp379
g16
V18.5204303
p380
sg18
I133
sg19
V73.8567437
p381
sg21
VRTO New
p382
sa(dp383
g16
V18.5204303
p384
sg18
I135
sg19
V73.8567437
p385
sg21
VMES Water Works
p386
sa(dp387
g16
V18.6234735
p388
sg18
I137
sg19
V73.8444793
p389
sg21
VShantinagar
p390
sa(dp391
g16
V18.570635
p392
sg18
I138
sg19
V73.879023
p393
sg21
VSathe Biscuit company
p394
sa(dp395
g16
V18.5784956
p396
sg18
I139
sg19
V73.8819676
p397
sg21
VVishrantwadi
p398
sa(dp399
g16
V18.5821537
p400
sg18
I141
sg19
V73.886745
p401
sg21
VBhairavnagar 
p402
sa(dp403
g16
V18.5877162
p404
sg18
I142
sg19
V73.8885824
p405
sg21
VGokul Nagar 
p406
sa(dp407
g16
V18.596693
p408
sg18
I144
sg19
V73.897405
p409
sg21
VDhanori Gaon
p410
sa(dp411
g16
V18.5204303
p412
sg18
I145
sg19
V73.8567437
p413
sg21
VLohoan
p414
sa(dp415
g16
V18.454864
p416
sg18
I147
sg19
V73.858576
p417
sg21
VKatraj dairy Sarpodyan
p418
sa(dp419
g16
V18.542963
p420
sg18
I148
sg19
V73.828643
p421
sg21
VBharti vidyapeeth gate
p422
sa(dp423
g16
V18.4646316
p424
sg18
I150
sg19
V73.8602841
p425
sg21
VBalaji nagar
p426
sa(dp427
g16
V18.468843
p428
sg18
I151
sg19
V73.857517
p429
sg21
VVishweshwar Bank KK market
p430
sa(dp431
g16
V18.5048936
p432
sg18
I152
sg19
V73.862586
p433
sg21
VPadmavati corner
p434
sa(dp435
g16
V18.5381935
p436
sg18
I4
sg19
V73.7812713
p437
sg21
VMhalunge Phata
p438
sa(dp439
g16
V18.5119016
p440
sg18
I1529
sg19
V73.8545505
p441
sg21
VSant Tukaram Mangal Karyalaya
p442
sa(dp443
g16
V18.4821147
p444
sg18
I1534
sg19
V73.8874799
p445
sg21
VMount Convent School
p446
sa(dp447
g16
V18.49174
p448
sg18
I156
sg19
V73.857581
p449
sg21
VPanchami hotel
p450
sa(dp451
g16
V18.5204303
p452
sg18
I157
sg19
V73.8567437
p453
sg21
VLaxmi Narayan Theature
p454
sa(dp455
g16
V18.617412
p456
sg18
I159
sg19
V73.825929
p457
sg21
VBhosari Police Station 
p458
sa(dp459
g16
V19.128151
p460
sg18
I160
sg19
V73.697387
p461
sg21
VAmbegaon
p462
sa(dp463
g16
V18.4585107
p464
sg18
I162
sg19
V73.8452604
p465
sg21
VRamnagar Katraj
p466
sa(dp467
g16
V18.4460037
p468
sg18
I163
sg19
V73.8353326
p469
sg21
VDattanagar Katraj
p470
sa(dp471
g16
V18.562025
p472
sg18
I165
sg19
V73.836551
p473
sg21
VGanpati mandir
p474
sa(dp475
g16
V18.5138275
p476
sg18
I166
sg19
V73.819667
p477
sg21
VPICT Bharati vidyapeeth
p478
sa(dp479
g16
V18.454604
p480
sg18
I167
sg19
V73.853738
p481
sg21
VRajaram Gas agency
p482
sa(dp483
g16
V18.449303
p484
sg18
I169
sg19
V73.834354
p485
sg21
VBhumkar Nagar
p486
sa(dp487
g16
V18.4534504
p488
sg18
I170
sg19
V73.8227917
p489
sg21
VNarhe Gaon
p490
sa(dp491
g16
V18.4624953
p492
sg18
I172
sg19
V73.832446
p493
sg21
VAjinkyatara
p494
sa(dp495
g16
V18.5204303
p496
sg18
I173
sg19
V73.8567437
p497
sg21
VParikh complex
p498
sa(dp499
g16
V18.5204303
p500
sg18
I175
sg19
V73.8567437
p501
sg21
VPoultry farm singhgad road
p502
sa(dp503
g16
V18.457172
p504
sg18
I176
sg19
V73.811772
p505
sg21
VRaykar wasti
p506
sa(dp507
g16
V18.447537
p508
sg18
I177
sg19
V73.810282
p509
sg21
VDhayari Gaon
p510
sa(dp511
g16
V18.457172
p512
sg18
I179
sg19
V73.811772
p513
sg21
VDangat wasti
p514
sa(dp515
g16
V18.5204303
p516
sg18
I181
sg19
V73.8567437
p517
sg21
VLagad wasti
p518
sa(dp519
g16
V18.5204303
p520
sg18
I182
sg19
V73.8567437
p521
sg21
VMate Pat Sasa company
p522
sa(dp523
g16
V18.454771
p524
sg18
I183
sg19
V73.796711
p525
sg21
VNanded Phata
p526
sa(dp527
g16
V18.5204303
p528
sg18
I185
sg19
V73.8567437
p529
sg21
VCWPRS gate no.1
p530
sa(dp531
g16
V18.5204303
p532
sg18
I186
sg19
V73.8567437
p533
sg21
VNandoshi Phata
p534
sa(dp535
g16
V18.4534504
p536
sg18
I188
sg19
V73.8227917
p537
sg21
VKhadakwasla Gaon
p538
sa(dp539
g16
V18.4868701
p540
sg18
I190
sg19
V73.8676347
p541
sg21
VMarketyard
p542
sa(dp543
g16
V18.5204303
p544
sg18
I191
sg19
V73.8567437
p545
sg21
VWakhar Mahamandal Marketyard
p546
sa(dp547
g16
V18.489475
p548
sg18
I192
sg19
V73.869728
p549
sg21
VGodown Marketyard
p550
sa(dp551
g16
V18.489535
p552
sg18
I194
sg19
V73.86202
p553
sg21
VMafco Company
p554
sa(dp555
g16
V18.499338
p556
sg18
I195
sg19
V73.852616
p557
sg21
VParvati payatha
p558
sa(dp559
g16
V18.5010461
p560
sg18
I196
sg19
V73.8485225
p561
sg21
VDandekar pul
p562
sa(dp563
g16
V18.497971
p564
sg18
I198
sg19
V73.84092
p565
sg21
VJal Shuddhikarn Kendra Sinhgad Road
p566
sa(dp567
g16
V18.496415
p568
sg18
I199
sg19
V73.838769
p569
sg21
VGanesh mala
p570
sa(dp571
g16
V18.492252
p572
sg18
I200
sg19
V73.834255
p573
sg21
VVitbhatti Sinhgad Road
p574
sa(dp575
g16
V18.489225
p576
sg18
I202
sg19
V73.830747
p577
sg21
VJaydeo nagar 
p578
sa(dp579
g16
V18.5204303
p580
sg18
I203
sg19
V73.8567437
p581
sg21
VVitthalwadi Mandir Hingne
p582
sa(dp583
g16
V18.4833994
p584
sg18
I204
sg19
V73.8351041
p585
sg21
VHingne rasta
p586
sa(dp587
g16
V18.473263
p588
sg18
I206
sg19
V73.821563
p589
sg21
VManik Bag
p590
sa(dp591
g16
V18.5204303
p592
sg18
I207
sg19
V73.8567437
p593
sg21
VIndian hum company
p594
sa(dp595
g16
V18.5106215
p596
sg18
I209
sg19
V73.8525331
p597
sg21
VPatil colony
p598
sa(dp599
g16
V18.4484912
p600
sg18
I210
sg19
V73.8154394
p601
sg21
VDhayari phata
p602
sa(dp603
g16
V18.425764
p604
sg18
I212
sg19
V73.766311
p605
sg21
VIAT Gate Girinagar
p606
sa(dp607
g16
V18.5204303
p608
sg18
I213
sg19
V73.8567437
p609
sg21
VSant Dharmaji Samadhi
p610
sa(dp611
g16
V18.421399
p612
sg18
I214
sg19
V73.756846
p613
sg21
VGorhe Budruk
p614
sa(dp615
g16
V18.5204303
p616
sg18
I216
sg19
V73.8567437
p617
sg21
VDonje Goan Phata
p618
sa(dp619
g16
V18.5204303
p620
sg18
I217
sg19
V73.8567437
p621
sg21
VPaygude wasti Donje
p622
sa(dp623
g16
V18.4083034
p624
sg18
I219
sg19
V73.7507276
p625
sg21
VGorhe khurd
p626
sa(dp627
g16
V18.5204303
p628
sg18
I220
sg19
V73.8567437
p629
sg21
VMalatwadi
p630
sa(dp631
g16
V18.4002217
p632
sg18
I221
sg19
V73.7323398
p633
sg21
VKhanapur
p634
sa(dp635
g16
V18.5187204
p636
sg18
I223
sg19
V73.8566546
p637
sg21
VLalmahal
p638
sa(dp639
g16
V18.5194658
p640
sg18
I224
sg19
V73.8605597
p641
sg21
VRCM 
p642
sa(dp643
g16
V18.519584
p644
sg18
I226
sg19
V73.865154
p645
sg21
VApolo Talkies
p646
sa(dp647
g16
V18.520198
p648
sg18
I227
sg19
V73.86766
p649
sg21
VKEM hospital
p650
sa(dp651
g16
V18.5287538
p652
sg18
I229
sg19
V73.8731475
p653
sg21
VPune station
p654
sa(dp655
g16
V18.533653
p656
sg18
I230
sg19
V73.877391
p657
sg21
VRuby hall
p658
sa(dp659
g16
V18.5204303
p660
sg18
I232
sg19
V73.8567437
p661
sg21
VBlue Diamond hotel
p662
sa(dp663
g16
V18.536501
p664
sg18
I233
sg19
V73.885682
p665
sg21
VSaint Meera college
p666
sa(dp667
g16
V18.5204303
p668
sg18
I235
sg19
V73.8567437
p669
sg21
VAnnadhanya Godam
p670
sa(dp671
g16
V18.4866252
p672
sg18
I236
sg19
V73.9503603
p673
sg21
VBungalow no 105
p674
sa(dp675
g16
V18.5399302
p676
sg18
I238
sg19
V73.8908792
p677
sg21
VKasturba School north lane
p678
sa(dp679
g16
V18.5481
p680
sg18
I239
sg19
V73.9033
p681
sg21
VKalyani nagar
p682
sa(dp683
g16
V18.544424
p684
sg18
I241
sg19
V73.824065
p685
sg21
Vchavan nagar university road
p686
sa(dp687
g16
V18.5471748
p688
sg18
I242
sg19
V73.8202184
p689
sg21
VSakal nagar
p690
sa(dp691
g16
V18.548815
p692
sg18
I243
sg19
V73.813016
p693
sg21
VSindh colony
p694
sa(dp695
g16
V18.5549196
p696
sg18
I245
sg19
V73.805881
p697
sg21
VSanewadi
p698
sa(dp699
g16
V18.560268
p700
sg18
I247
sg19
V73.809202
p701
sg21
VITI parihar Chauk
p702
sa(dp703
g16
V18.56133
p704
sg18
I248
sg19
V73.810066
p705
sg21
VPolice workshop
p706
sa(dp707
g16
V18.572723
p708
sg18
I249
sg19
V73.807171
p709
sg21
VSangvi Phata
p710
sa(dp711
g16
V18.57507
p712
sg18
I250
sg19
V73.808405
p713
sg21
VNurses Quarters
p714
sa(dp715
g16
V18.5811384
p716
sg18
I252
sg19
V73.8155658
p717
sg21
VNavi Sangvi
p718
sa(dp719
g16
V18.575547
p720
sg18
I253
sg19
V73.815303
p721
sg21
VPanyachi taki sangvi
p722
sa(dp723
g16
V18.5067346
p724
sg18
I255
sg19
V73.8147042
p725
sg21
VAnand nagar
p726
sa(dp727
g16
V18.5639463
p728
sg18
I256
sg19
V73.8102927
p729
sg21
VSangvi goan
p730
sa(dp731
g16
V18.5005778
p732
sg18
I258
sg19
V73.9425951
p733
sg21
VHadapsar gadital
p734
sa(dp735
g16
V18.501672
p736
sg18
I259
sg19
V73.93307
p737
sg21
VHadapsar gaon
p738
sa(dp739
g16
V18.4954474
p740
sg18
I261
sg19
V73.9322163
p741
sg21
VKanifnath Soc.
p742
sa(dp743
g16
V18.4945814
p744
sg18
I262
sg19
V73.9315733
p745
sg21
VSasane Nagar
p746
sa(dp747
g16
V18.4864683
p748
sg18
I264
sg19
V73.9293689
p749
sg21
Vsayadnagar
p750
sa(dp751
g16
V18.5204303
p752
sg18
I265
sg19
V73.8567437
p753
sg21
VHari Hareshwar mandir
p754
sa(dp755
g16
V18.5204303
p756
sg18
I266
sg19
V73.8567437
p757
sg21
VWadkar mala 
p758
sa(dp759
g16
V18.5204303
p760
sg18
I267
sg19
V73.8567437
p761
sg21
VTarawade wasti
p762
sa(dp763
g16
V18.5204303
p764
sg18
I269
sg19
V73.8567437
p765
sg21
VMohammadwadi shala
p766
sa(dp767
g16
V18.5894857
p768
sg18
I270
sg19
V73.895824
p769
sg21
VKadwasti
p770
sa(dp771
g16
V18.5204303
p772
sg18
I272
sg19
V73.8567437
p773
sg21
VPunekar wasti
p774
sa(dp775
g16
V18.450695
p776
sg18
I273
sg19
V73.915601
p777
sg21
VUndrigaon 
p778
sa(dp779
g16
V18.51415
p780
sg18
I275
sg19
V73.849754
p781
sg21
VGokhale hall
p782
sa(dp783
g16
V18.513845
p784
sg18
I276
sg19
V73.846962
p785
sg21
VVijay Talkies
p786
sa(dp787
g16
V18.512564
p788
sg18
I277
sg19
V73.843912
p789
sg21
VAlka talkies
p790
sa(dp791
g16
V18.519612
p792
sg18
I279
sg19
V73.830343
p793
sg21
VBhandarkar Institute
p794
sa(dp795
g16
V18.5650686
p796
sg18
I280
sg19
V73.9104599
p797
sg21
VSymbiosis college
p798
sa(dp799
g16
V18.5204303
p800
sg18
I282
sg19
V73.8567437
p801
sg21
VVetal Maharaj chauk
p802
sa(dp803
g16
V18.541013
p804
sg18
I284
sg19
V73.830676
p805
sg21
VICC bus stop
p806
sa(dp807
g16
V18.5204303
p808
sg18
I285
sg19
V73.8567437
p809
sg21
VChatushringi payatha
p810
sa(dp811
g16
V18.5204303
p812
sg18
I286
sg19
V73.8567437
p813
sg21
VGents hostel university
p814
sa(dp815
g16
V18.5204303
p816
sg18
I287
sg19
V73.8567437
p817
sg21
VVidyapeeth Press
p818
sa(dp819
g16
V18.5204303
p820
sg18
I289
sg19
V73.8567437
p821
sg21
VSevak Vasaha
p822
sa(dp823
g16
V18.554298
p824
sg18
I290
sg19
V73.824577
p825
sg21
VPune University Main Building
p826
sa(dp827
g16
V18.4661727
p828
sg18
I292
sg19
V73.8172355
p829
sg21
VTrimurti garden
p830
sa(dp831
g16
V18.4472598
p832
sg18
I293
sg19
V73.8588438
p833
sg21
VAmbegaon Highway
p834
sa(dp835
g16
V18.5204303
p836
sg18
I294
sg19
V73.8567437
p837
sg21
VShubham hotel
p838
sa(dp839
g16
V18.481564
p840
sg18
I296
sg19
V73.857141
p841
sg21
VWadgaon bu. Highway
p842
sa(dp843
g16
V18.5204303
p844
sg18
I297
sg19
V73.8567437
p845
sg21
VDaulatnagar Patilbag
p846
sa(dp847
g16
V18.5204303
p848
sg18
I299
sg19
V73.8567437
p849
sg21
VPopular Nagar Cipla cancer care entre
p850
sa(dp851
g16
V18.4871314
p852
sg18
I300
sg19
V73.7960866
p853
sg21
VAtulnagar gate
p854
sa(dp855
g16
V18.5780193
p856
sg18
I1537
sg19
V73.8106603
p857
sg21
VVivekanand Society
p858
sa(dp859
g16
V18.5204303
p860
sg18
I1540
sg19
V73.8567437
p861
sg21
VKhadakwasla Dharan Stores
p862
sa(dp863
g16
V18.5204303
p864
sg18
I303
sg19
V73.8567437
p865
sg21
VRaviraj residency
p866
sa(dp867
g16
V18.5138284
p868
sg18
I305
sg19
V73.8335899
p869
sg21
VParanjpe scheme
p870
sa(dp871
g16
V18.5204303
p872
sg18
I307
sg19
V73.8567437
p873
sg21
VDSK Toyota Showroom
p874
sa(dp875
g16
V18.5204303
p876
sg18
I308
sg19
V73.8567437
p877
sg21
VHRA relance
p878
sa(dp879
g16
V18.5398982
p880
sg18
I309
sg19
V73.7823508
p881
sg21
VSutarwadi
p882
sa(dp883
g16
V18.5381935
p884
sg18
I311
sg19
V73.7812713
p885
sg21
VSoos phata
p886
sa(dp887
g16
V18.5204303
p888
sg18
I314
sg19
V73.8567437
p889
sg21
VMhalunge corner
p890
sa(dp891
g16
V18.5825868
p892
sg18
I316
sg19
V73.7683784
p893
sg21
VMutha Pool Balewadi
p894
sa(dp895
g16
V18.592969
p896
sg18
I317
sg19
V73.756649
p897
sg21
VWakad Highway
p898
sa(dp899
g16
V18.5204303
p900
sg18
I318
sg19
V73.8567437
p901
sg21
VBU Bhandari Showroom
p902
sa(dp903
g16
V18.586534
p904
sg18
I319
sg19
V73.736266
p905
sg21
VWakad Police Chowky
p906
sa(dp907
g16
V18.617458
p908
sg18
I321
sg19
V73.873979
p909
sg21
VDattanagar Chinchwad
p910
sa(dp911
g16
V18.62579
p912
sg18
I322
sg19
V73.774995
p913
sg21
VBirla Hospital
p914
sa(dp915
g16
V18.5204303
p916
sg18
I324
sg19
V73.8567437
p917
sg21
VWalhekarwadi phata
p918
sa(dp919
g16
V18.629408
p920
sg18
I325
sg19
V73.781232
p921
sg21
VChafekar chauk
p922
sa(dp923
g16
V18.656994
p924
sg18
I326
sg19
V73.765219
p925
sg21
VChinchwad station
p926
sa(dp927
g16
V18.646916
p928
sg18
I328
sg19
V73.788385
p929
sg21
VKalbhor nagar bus stop
p930
sa(dp931
g16
V18.648278
p932
sg18
I329
sg19
V73.7872
p933
sg21
VRustan company
p934
sa(dp935
g16
V18.653783
p936
sg18
I331
sg19
V73.781962
p937
sg21
VBajaj auto
p938
sa(dp939
g16
V18.65873
p940
sg18
I332
sg19
V73.777516
p941
sg21
VPradhikaran Chowk
p942
sa(dp943
g16
V18.6653249
p944
sg18
I334
sg19
V73.7706765
p945
sg21
VBhakti shakti depot
p946
sa(dp947
g16
V18.6804895
p948
sg18
I335
sg19
V73.800734
p949
sg21
VChikhali
p950
sa(dp951
g16
V18.5204303
p952
sg18
I337
sg19
V73.8567437
p953
sg21
VJadhav wadi phata
p954
sa(dp955
g16
V18.680733
p956
sg18
I338
sg19
V73.8198508
p957
sg21
VJadhav wadi
p958
sa(dp959
g16
V18.549333
p960
sg18
I339
sg19
V73.8239307
p961
sg21
VAhire wadi
p962
sa(dp963
g16
V18.5204303
p964
sg18
I341
sg19
V73.8567437
p965
sg21
VAgarwal Container
p966
sa(dp967
g16
V18.5020513
p968
sg18
I342
sg19
V73.8723895
p969
sg21
VNew Life
p970
sa(dp971
g16
V18.5402962
p972
sg18
I344
sg19
V73.8338086
p973
sg21
VYashwant nagar corner
p974
sa(dp975
g16
V18.6352353
p976
sg18
I345
sg19
V73.8195956
p977
sg21
VSwapna nagari
p978
sa(dp979
g16
V18.50527
p980
sg18
I347
sg19
V73.8746667
p981
sg21
VZero Boys
p982
sa(dp983
g16
V18.628963
p984
sg18
I348
sg19
V73.819338
p985
sg21
VNehrunagar corner
p986
sa(dp987
g16
V18.6269427
p988
sg18
I350
sg19
V73.8204022
p989
sg21
VMahesh nagar
p990
sa(dp991
g16
V18.620096
p992
sg18
I351
sg19
V73.817734
p993
sg21
VYCM
p994
sa(dp995
g16
V18.615558
p996
sg18
I353
sg19
V73.815146
p997
sg21
VVallabhnagar
p998
sa(dp999
g16
V18.475692
p1000
sg18
I355
sg19
V73.795743
p1001
sg21
VGanpati matha
p1002
sa(dp1003
g16
V18.479579
p1004
sg18
I356
sg19
V73.7973269
p1005
sg21
VDnanesh society
p1006
sa(dp1007
g16
V18.474689
p1008
sg18
I357
sg19
V73.8022046
p1009
sg21
VWarje malwadi
p1010
sa(dp1011
g16
V18.484655
p1012
sg18
I359
sg19
V73.810415
p1013
sg21
VWarje jakatnaka
p1014
sa(dp1015
g16
V18.491529
p1016
sg18
I360
sg19
V73.815159
p1017
sg21
VWadache jhad
p1018
sa(dp1019
g16
V18.5204303
p1020
sg18
I362
sg19
V73.8567437
p1021
sg21
VPaud phata dashbhuja mandir
p1022
sa(dp1023
g16
V18.617356
p1024
sg18
I363
sg19
V73.767218
p1025
sg21
VThergaon phata 
p1026
sa(dp1027
g16
V18.6089687
p1028
sg18
I365
sg19
V73.8025493
p1029
sg21
VPimprigaon
p1030
sa(dp1031
g16
V18.614905
p1032
sg18
I366
sg19
V73.804088
p1033
sg21
VAshok Talkies
p1034
sa(dp1035
g16
V18.6174079
p1036
sg18
I367
sg19
V73.8010831
p1037
sg21
VJaihind School
p1038
sa(dp1039
g16
V18.5204303
p1040
sg18
I369
sg19
V73.8567437
p1041
sg21
VKarachi chauk
p1042
sa(dp1043
g16
V18.534269
p1044
sg18
I370
sg19
V73.928313
p1045
sg21
VLalmandir
p1046
sa(dp1047
g16
V18.629379
p1048
sg18
I372
sg19
V73.802574
p1049
sg21
VFinolex
p1050
sa(dp1051
g16
V18.6329328
p1052
sg18
I374
sg19
V73.8209536
p1053
sg21
VNehrunagar
p1054
sa(dp1055
g16
V18.6301835
p1056
sg18
I375
sg19
V73.8236171
p1057
sg21
VJyoti school
p1058
sa(dp1059
g16
V18.5204303
p1060
sg18
I377
sg19
V73.8567437
p1061
sg21
VAbhi Chemicals
p1062
sa(dp1063
g16
V18.5204303
p1064
sg18
I378
sg19
V73.8567437
p1065
sg21
VJayanand khira
p1066
sa(dp1067
g16
V18.540509
p1068
sg18
I379
sg19
V73.830538
p1069
sg21
VIdrayani nagar corner
p1070
sa(dp1071
g16
V18.62052
p1072
sg18
I381
sg19
V73.849723
p1073
sg21
VGavane Vasti 
p1074
sa(dp1075
g16
V18.620129
p1076
sg18
I382
sg19
V73.85043
p1077
sg21
VPCMT chauk
p1078
sa(dp1079
g16
V18.4574675
p1080
sg18
I384
sg19
V73.7698492
p1081
sg21
VKondhava dhavade
p1082
sa(dp1083
g16
V18.6691702
p1084
sg18
I385
sg19
V73.8521981
p1085
sg21
VBhimnagar
p1086
sa(dp1087
g16
V18.460409
p1088
sg18
I386
sg19
V73.772238
p1089
sg21
VUttamanagar
p1090
sa(dp1091
g16
V18.465671
p1092
sg18
I388
sg19
V73.777036
p1093
sg21
VIngale colony
p1094
sa(dp1095
g16
V18.469156
p1096
sg18
I389
sg19
V73.786778
p1097
sg21
VDeshmukhwadi
p1098
sa(dp1099
g16
V18.471332
p1100
sg18
I391
sg19
V73.790372
p1101
sg21
VDudhane wasti
p1102
sa(dp1103
g16
V18.5204303
p1104
sg18
I392
sg19
V73.8567437
p1105
sg21
VHM Hostel
p1106
sa(dp1107
g16
V18.562315
p1108
sg18
I394
sg19
V73.833407
p1109
sg21
VLIC Colony Khadki
p1110
sa(dp1111
g16
V18.562405
p1112
sg18
I395
sg19
V73.833546
p1113
sg21
V40 aundh road
p1114
sa(dp1115
g16
V18.5639463
p1116
sg18
I397
sg19
V73.8102927
p1117
sg21
VBopodi Gaon
p1118
sa(dp1119
g16
V18.5204303
p1120
sg18
I398
sg19
V73.8567437
p1121
sg21
VGangaram park
p1122
sa(dp1123
g16
V18.569811
p1124
sg18
I399
sg19
V73.841791
p1125
sg21
VKirloskar oil engine manaji bag
p1126
sa(dp1127
g16
V18.5667
p1128
sg18
I401
sg19
V73.8667
p1129
sg21
VKhadki Bazar
p1130
sa(dp1131
g16
V18.5204303
p1132
sg18
I402
sg19
V73.8567437
p1133
sg21
VLakshi narayan theature
p1134
sa(dp1135
g16
V18.481564
p1136
sg18
I404
sg19
V73.857141
p1137
sg21
VNatu Bag
p1138
sa(dp1139
g16
V18.4517392
p1140
sg18
I405
sg19
V73.8566485
p1141
sg21
VMore bag
p1142
sa(dp1143
g16
V18.5204303
p1144
sg18
I406
sg19
V73.8567437
p1145
sg21
VGujarwadi Phata
p1146
sa(dp1147
g16
V18.434486
p1148
sg18
I408
sg19
V73.85976
p1149
sg21
VMangdewadi Phata
p1150
sa(dp1151
g16
V18.4222218
p1152
sg18
I409
sg19
V73.8610191
p1153
sg21
VBhilarewadi
p1154
sa(dp1155
g16
V18.417774
p1156
sg18
I411
sg19
V73.856749
p1157
sg21
VStage kramank 7
p1158
sa(dp1159
g16
V18.412689
p1160
sg18
I412
sg19
V73.858267
p1161
sg21
VWaghjai Mandir
p1162
sa(dp1163
g16
V18.400988
p1164
sg18
I413
sg19
V73.857102
p1165
sg21
VGhat utaar Walan
p1166
sa(dp1167
g16
V18.5204303
p1168
sg18
I415
sg19
V73.8567437
p1169
sg21
VAdlar Engineering
p1170
sa(dp1171
g16
V18.5204303
p1172
sg18
I417
sg19
V73.8567437
p1173
sg21
VVelugoan Phata
p1174
sa(dp1175
g16
V18.5204303
p1176
sg18
I418
sg19
V73.8567437
p1177
sg21
VGrand Hotel
p1178
sa(dp1179
g16
V18.347933
p1180
sg18
I420
sg19
V73.851646
p1181
sg21
VKodhanpur Phata
p1182
sa(dp1183
g16
V18.347754
p1184
sg18
I421
sg19
V73.850063
p1185
sg21
VOval vasti
p1186
sa(dp1187
g16
V18.8550308
p1188
sg18
I422
sg19
V73.8874991
p1189
sg21
VKhed
p1190
sa(dp1191
g16
V18.340913
p1192
sg18
I423
sg19
V73.839067
p1193
sg21
VShivapur wada
p1194
sa(dp1195
g16
V18.343755
p1196
sg18
I425
sg19
V73.834029
p1197
sg21
VGulnur Farm
p1198
sa(dp1199
g16
V18.34711
p1200
sg18
I426
sg19
V73.829383
p1201
sg21
VChillal masala company
p1202
sa(dp1203
g16
V18.350888
p1204
sg18
I428
sg19
V73.813346
p1205
sg21
VKandhare poultry farm
p1206
sa(dp1207
g16
V18.350353
p1208
sg18
I429
sg19
V73.805555
p1209
sg21
VDiamond Company
p1210
sa(dp1211
g16
V18.5204303
p1212
sg18
I431
sg19
V73.8567437
p1213
sg21
VBauddha Vasti
p1214
sa(dp1215
g16
V18.5204303
p1216
sg18
I432
sg19
V73.8567437
p1217
sg21
VRahatawade Vasti
p1218
sa(dp1219
g16
V18.5204303
p1220
sg18
I434
sg19
V73.8567437
p1221
sg21
VNewad wasti
p1222
sa(dp1223
g16
V18.5035861
p1224
sg18
I435
sg19
V73.9388143
p1225
sg21
VSane wasti
p1226
sa(dp1227
g16
V18.670071
p1228
sg18
I436
sg19
V73.798221
p1229
sg21
VSane chauk
p1230
sa(dp1231
g16
V18.664136
p1232
sg18
I438
sg19
V73.795072
p1233
sg21
VKasturi market
p1234
sa(dp1235
g16
V18.664508
p1236
sg18
I439
sg19
V73.786573
p1237
sg21
VAjantha nagar corner
p1238
sa(dp1239
g16
V18.6592923
p1240
sg18
I440
sg19
V73.7950158
p1241
sg21
VThermax
p1242
sa(dp1243
g16
V18.5204303
p1244
sg18
I442
sg19
V73.8567437
p1245
sg21
VLIC corner
p1246
sa(dp1247
g16
V18.5204303
p1248
sg18
I443
sg19
V73.8567437
p1249
sg21
VSweet mart
p1250
sa(dp1251
g16
V18.5204303
p1252
sg18
I445
sg19
V73.8567437
p1253
sg21
VJai Hind Vidyalaya
p1254
sa(dp1255
g16
V18.5204303
p1256
sg18
I446
sg19
V73.8567437
p1257
sg21
VJakatnaka Pavanapool
p1258
sa(dp1259
g16
V18.62579
p1260
sg18
I447
sg19
V73.774995
p1261
sg21
VBirla hospital
p1262
sa(dp1263
g16
V18.513793
p1264
sg18
I449
sg19
V73.841438
p1265
sg21
VDeccan corner sambhaji pool
p1266
sa(dp1267
g16
V18.5069
p1268
sg18
I450
sg19
V73.823727
p1269
sg21
VPaud phata police chauky
p1270
sa(dp1271
g16
V18.562315
p1272
sg18
I452
sg19
V73.833407
p1273
sg21
VLIC colony
p1274
sa(dp1275
g16
V18.5204303
p1276
sg18
I302
sg19
V73.8567437
p1277
sg21
VWonder funkey
p1278
sa(dp1279
g16
V18.5204303
p1280
sg18
I1544
sg19
V73.8567437
p1281
sg21
VKudje gaon
p1282
sa(dp1283
g16
V18.5204303
p1284
sg18
I456
sg19
V73.8567437
p1285
sg21
VParamhans corner
p1286
sa(dp1287
g16
V18.507438
p1288
sg18
I457
sg19
V73.799911
p1289
sg21
VKachara depot
p1290
sa(dp1291
g16
V18.506696
p1292
sg18
I459
sg19
V73.795338
p1293
sg21
Vkothrud depot
p1294
sa(dp1295
g16
V18.5204303
p1296
sg18
I460
sg19
V73.8567437
p1297
sg21
VShinde farm
p1298
sa(dp1299
g16
V18.512056
p1300
sg18
I462
sg19
V73.782175
p1301
sg21
VShinde Nagar
p1302
sa(dp1303
g16
V18.517183
p1304
sg18
I463
sg19
V73.780905
p1305
sg21
VBavdhan goan
p1306
sa(dp1307
g16
V18.5204303
p1308
sg18
I465
sg19
V73.8567437
p1309
sg21
VARDE Colony
p1310
sa(dp1311
g16
V18.5390917
p1312
sg18
I466
sg19
V73.7977928
p1313
sg21
VPashan
p1314
sa(dp1315
g16
V18.537925
p1316
sg18
I467
sg19
V73.802251
p1317
sg21
VARDE bus stop
p1318
sa(dp1319
g16
V18.5362002
p1320
sg18
I468
sg19
V73.805881
p1321
sg21
VIITM
p1322
sa(dp1323
g16
V18.5414875
p1324
sg18
I470
sg19
V73.8106594
p1325
sg21
VNCL
p1326
sa(dp1327
g16
V18.5364174
p1328
sg18
I472
sg19
V73.8195119
p1329
sg21
VLoyala Highschool
p1330
sa(dp1331
g16
V18.540574
p1332
sg18
I473
sg19
V73.820782
p1333
sg21
VPolice head office
p1334
sa(dp1335
g16
V18.537936
p1336
sg18
I475
sg19
V73.834618
p1337
sg21
VE Square
p1338
sa(dp1339
g16
V18.526617
p1340
sg18
I476
sg19
V73.852559
p1341
sg21
VShivaji putala
p1342
sa(dp1343
g16
V18.551905
p1344
sg18
I478
sg19
V73.849493
p1345
sg21
VRaja Bungalow
p1346
sa(dp1347
g16
V18.558521
p1348
sg18
I479
sg19
V73.845195
p1349
sg21
VKhadki church stop
p1350
sa(dp1351
g16
V18.5204303
p1352
sg18
I480
sg19
V73.8567437
p1353
sg21
VAlfa laval atlas company
p1354
sa(dp1355
g16
V18.5204303
p1356
sg18
I482
sg19
V73.8567437
p1357
sg21
VDeichi company
p1358
sa(dp1359
g16
V18.6273149
p1360
sg18
I484
sg19
V73.8102927
p1361
sg21
VKharalwadi
p1362
sa(dp1363
g16
V18.626748
p1364
sg18
I485
sg19
V73.805523
p1365
sg21
VPimpri chauk Bus stop
p1366
sa(dp1367
g16
V18.635293
p1368
sg18
I486
sg19
V73.798276
p1369
sg21
VPremier company
p1370
sa(dp1371
g16
V18.571469
p1372
sg18
I487
sg19
V73.838028
p1373
sg21
VCantonment jakat naka
p1374
sa(dp1375
g16
V18.5204303
p1376
sg18
I489
sg19
V73.8567437
p1377
sg21
VB sub depot
p1378
sa(dp1379
g16
V18.4701033
p1380
sg18
I490
sg19
V73.7641497
p1381
sg21
VKendriya vidyalaya
p1382
sa(dp1383
g16
V18.5204303
p1384
sg18
I492
sg19
V73.8567437
p1385
sg21
VCISV
p1386
sa(dp1387
g16
V18.678599
p1388
sg18
I493
sg19
V73.742183
p1389
sg21
VDehu phata highway
p1390
sa(dp1391
g16
V18.5204303
p1392
sg18
I495
sg19
V73.8567437
p1393
sg21
VDehuroad bajar
p1394
sa(dp1395
g16
V18.6821027
p1396
sg18
I496
sg19
V73.7316304
p1397
sg21
VGurudwara dehu road
p1398
sa(dp1399
g16
V18.5204303
p1400
sg18
I498
sg19
V73.8567437
p1401
sg21
VCentral Restaurant
p1402
sa(dp1403
g16
V18.6821027
p1404
sg18
I499
sg19
V73.7316304
p1405
sg21
VKrushna Mandir Dehu Road
p1406
sa(dp1407
g16
V18.6965913
p1408
sg18
I500
sg19
V73.7082882
p1409
sg21
VMata Amardevi temple
p1410
sa(dp1411
g16
V18.5204303
p1412
sg18
I502
sg19
V73.8567437
p1413
sg21
VShankarwadi
p1414
sa(dp1415
g16
V18.6739843
p1416
sg18
I503
sg19
V73.7433727
p1417
sg21
VShelarwadi
p1418
sa(dp1419
g16
V18.546806
p1420
sg18
I504
sg19
V73.851656
p1421
sg21
VPune poultry farm
p1422
sa(dp1423
g16
V18.5204303
p1424
sg18
I506
sg19
V73.8567437
p1425
sg21
VTalegaon Khind
p1426
sa(dp1427
g16
V18.7155
p1428
sg18
I507
sg19
V73.675447
p1429
sg21
VTalegoan phata
p1430
sa(dp1431
g16
V18.7167
p1432
sg18
I509
sg19
V73.6833
p1433
sg21
VJijamata chowk Talegaon
p1434
sa(dp1435
g16
V18.5204303
p1436
sg18
I510
sg19
V73.8567437
p1437
sg21
VTalegaon nagar parishad
p1438
sa(dp1439
g16
V18.732173
p1440
sg18
I512
sg19
V73.669647
p1441
sg21
VTalegaon station
p1442
sa(dp1443
g16
V18.496749
p1444
sg18
I514
sg19
V73.968418
p1445
sg21
VBharat Petrol Pump
p1446
sa(dp1447
g16
V18.7562767
p1448
sg18
I515
sg19
V73.456324
p1449
sg21
VSamartha Vidyalaya Wadgaon Maval
p1450
sa(dp1451
g16
V18.5204303
p1452
sg18
I516
sg19
V73.8567437
p1453
sg21
VPaisa Phand  Kach Karkhana
p1454
sa(dp1455
g16
V18.6404818
p1456
sg18
I518
sg19
V73.7227774
p1457
sg21
VJambhe
p1458
sa(dp1459
g16
V18.5204303
p1460
sg18
I519
sg19
V73.8567437
p1461
sg21
VJambhe Prathamik Shala
p1462
sa(dp1463
g16
V18.5204303
p1464
sg18
I521
sg19
V73.8567437
p1465
sg21
VTajane Vasti
p1466
sa(dp1467
g16
V18.5204303
p1468
sg18
I522
sg19
V73.8567437
p1469
sg21
VPunavale Corner
p1470
sa(dp1471
g16
V18.5204303
p1472
sg18
I524
sg19
V73.8567437
p1473
sg21
VKudale Farm
p1474
sa(dp1475
g16
V18.6289
p1476
sg18
I525
sg19
V73.7481
p1477
sg21
VTathwade
p1478
sa(dp1479
g16
V18.5687742
p1480
sg18
I527
sg19
V73.7709523
p1481
sg21
VLaxman nagar 
p1482
sa(dp1483
g16
V18.5204303
p1484
sg18
I528
sg19
V73.8567437
p1485
sg21
VSindh Colony Gate2
p1486
sa(dp1487
g16
V18.560308
p1488
sg18
I529
sg19
V73.815169
p1489
sg21
VBoys Batalian
p1490
sa(dp1491
g16
V18.529805
p1492
sg18
I531
sg19
V73.862654
p1493
sg21
VRTO wellesley road
p1494
sa(dp1495
g16
V18.528749
p1496
sg18
I532
sg19
V73.876116
p1497
sg21
VAlankar Talkies
p1498
sa(dp1499
g16
V18.523954
p1500
sg18
I533
sg19
V73.85418
p1501
sg21
VPMC Mangala
p1502
sa(dp1503
g16
V18.5204303
p1504
sg18
I535
sg19
V73.8567437
p1505
sg21
VGuruprasad bangala
p1506
sa(dp1507
g16
V18.5347267
p1508
sg18
I536
sg19
V73.8797127
p1509
sg21
VBand garden
p1510
sa(dp1511
g16
V18.54515
p1512
sg18
I537
sg19
V73.884236
p1513
sg21
VYerwada
p1514
sa(dp1515
g16
V18.5041381
p1516
sg18
I539
sg19
V73.8014693
p1517
sg21
VShastri nagar
p1518
sa(dp1519
g16
V18.554026
p1520
sg18
I540
sg19
V73.901998
p1521
sg21
VAgakhan palace
p1522
sa(dp1523
g16
V18.5566792
p1524
sg18
I542
sg19
V73.9094835
p1525
sg21
VRamwadi
p1526
sa(dp1527
g16
V18.5586323
p1528
sg18
I543
sg19
V73.9108729
p1529
sg21
VWeikfield
p1530
sa(dp1531
g16
V18.5204303
p1532
sg18
I545
sg19
V73.8567437
p1533
sg21
VWNC Company
p1534
sa(dp1535
g16
V18.562652
p1536
sg18
I547
sg19
V73.927638
p1537
sg21
VTata Guardroom Kharadi Phata
p1538
sa(dp1539
g16
V18.5472058
p1540
sg18
I548
sg19
V73.9403908
p1541
sg21
VChandan Nagar
p1542
sa(dp1543
g16
V18.5204303
p1544
sg18
I549
sg19
V73.8567437
p1545
sg21
VNEI Company
p1546
sa(dp1547
g16
V18.568438
p1548
sg18
I550
sg19
V73.934176
p1549
sg21
VKhule Wadi
p1550
sa(dp1551
g16
V18.5309093
p1552
sg18
I552
sg19
V73.8493495
p1553
sg21
VAkashwani hadapasar
p1554
sa(dp1555
g16
V18.4971364
p1556
sg18
I554
sg19
V73.9569225
p1557
sg21
VLaxmideep colony
p1558
sa(dp1559
g16
V18.5062211
p1560
sg18
I555
sg19
V73.9126174
p1561
sg21
VRambag solapur rd
p1562
sa(dp1563
g16
V18.495136
p1564
sg18
I556
sg19
V73.979009
p1565
sg21
VManjri farm
p1566
sa(dp1567
g16
V18.5204303
p1568
sg18
I558
sg19
V73.8567437
p1569
sg21
VKrushi mahavidyalaya
p1570
sa(dp1571
g16
V18.492034
p1572
sg18
I559
sg19
V74.000583
p1573
sg21
VKavadi pat
p1574
sa(dp1575
g16
V18.5204303
p1576
sg18
I560
sg19
V73.8567437
p1577
sg21
VKavadi rasta
p1578
sa(dp1579
g16
V18.5204303
p1580
sg18
I562
sg19
V73.8567437
p1581
sg21
VFuel depot
p1582
sa(dp1583
g16
V18.7277318
p1584
sg18
I563
sg19
V73.6544392
p1585
sg21
VKadam wasti
p1586
sa(dp1587
g16
V18.488876
p1588
sg18
I565
sg19
V74.027791
p1589
sg21
VLoni phata
p1590
sa(dp1591
g16
V18.5204303
p1592
sg18
I566
sg19
V73.8567437
p1593
sg21
VRamkrushna rasayan karkhana
p1594
sa(dp1595
g16
V18.5204303
p1596
sg18
I567
sg19
V73.8567437
p1597
sg21
VMalyacha mala
p1598
sa(dp1599
g16
V18.5204303
p1600
sg18
I569
sg19
V73.8567437
p1601
sg21
VTamnya wasti
p1602
sa(dp1603
g16
V18.488674
p1604
sg18
I570
sg19
V74.051714
p1605
sg21
VTheur phata
p1606
sa(dp1607
g16
V18.5204303
p1608
sg18
I572
sg19
V73.8567437
p1609
sg21
VTendulkar wasti
p1610
sa(dp1611
g16
V18.4850053
p1612
sg18
I573
sg19
V74.0711359
p1613
sg21
VKunjirwadi
p1614
sa(dp1615
g16
V18.5287449
p1616
sg18
I575
sg19
V73.8966848
p1617
sg21
VRailway gate no.1 
p1618
sa(dp1619
g16
V18.5204303
p1620
sg18
I576
sg19
V73.8567437
p1621
sg21
VChaufula 
p1622
sa(dp1623
g16
V18.4909003
p1624
sg18
I578
sg19
V74.1017673
p1625
sg21
VMalwadi Naygaon 
p1626
sa(dp1627
g16
V18.5100809
p1628
sg18
I579
sg19
V74.0946311
p1629
sg21
VNaygoan 
p1630
sa(dp1631
g16
V18.5204303
p1632
sg18
I581
sg19
V73.8567437
p1633
sg21
VPrayagdham Ashram 
p1634
sa(dp1635
g16
V18.5063383
p1636
sg18
I582
sg19
V74.1088128
p1637
sg21
VPrayagdham Hospital
p1638
sa(dp1639
g16
V18.5204303
p1640
sg18
I584
sg19
V73.8567437
p1641
sg21
VRailway Gate Aata Mill Karkhana 
p1642
sa(dp1643
g16
V18.5204303
p1644
sg18
I585
sg19
V73.8567437
p1645
sg21
VBagade wasti 
p1646
sa(dp1647
g16
V18.4768152
p1648
sg18
I587
sg19
V73.855506
p1649
sg21
VSahakar Nagar
p1650
sa(dp1651
g16
V18.4844946
p1652
sg18
I588
sg19
V73.8444793
p1653
sg21
VKranti Society
p1654
sa(dp1655
g16
V18.489427
p1656
sg18
I589
sg19
V73.84986
p1657
sg21
VSarang Society
p1658
sa(dp1659
g16
V18.4738711
p1660
sg18
I591
sg19
V73.825319
p1661
sg21
VBank of Maharashtra Parvati gaon
p1662
sa(dp1663
g16
V18.5204303
p1664
sg18
I592
sg19
V73.8567437
p1665
sg21
VMitramandal Sabhagruh
p1666
sa(dp1667
g16
V18.5312837
p1668
sg18
I594
sg19
V73.8478869
p1669
sg21
VS T Divisional office
p1670
sa(dp1671
g16
V18.5004785
p1672
sg18
I595
sg19
V73.8709424
p1673
sg21
VMeera society
p1674
sa(dp1675
g16
V18.50242
p1676
sg18
I596
sg19
V73.87717
p1677
sg21
VGolibar maidan
p1678
sa(dp1679
g16
V18.513113
p1680
sg18
I598
sg19
V73.879872
p1681
sg21
VBombay Garage
p1682
sa(dp1683
g16
V18.518774
p1684
sg18
I599
sg19
V73.878038
p1685
sg21
VWest end talkies
p1686
sa(dp1687
g16
V18.5204303
p1688
sg18
I601
sg19
V73.8567437
p1689
sg21
VRuston Company
p1690
sa(dp1691
g16
V18.646916
p1692
sg18
I602
sg19
V73.788385
p1693
sg21
VKalbhor nahar bus stop
p1694
sa(dp1695
g16
V18.5204303
p1696
sg18
I1547
sg19
V73.8567437
p1697
sg21
VPatvardhan Farm
p1698
sa(dp1699
g16
V18.5204303
p1700
sg18
I1745
sg19
V73.8567437
p1701
sg21
VShinde Farm
p1702
sa(dp1703
g16
V18.565143
p1704
sg18
I606
sg19
V73.850239
p1705
sg21
VSupply Depot
p1706
sa(dp1707
g16
V18.5583604
p1708
sg18
I608
sg19
V73.8546091
p1709
sg21
VMathyadist Church
p1710
sa(dp1711
g16
V18.544183
p1712
sg18
I609
sg19
V73.878067
p1713
sg21
VShadal baba Darga 
p1714
sa(dp1715
g16
V18.5303557
p1716
sg18
I610
sg19
V73.8766965
p1717
sg21
VJahangir Hospital
p1718
sa(dp1719
g16
V18.6084294
p1720
sg18
I612
sg19
V73.779777
p1721
sg21
VShivteerthnagar
p1722
sa(dp1723
g16
V18.5069
p1724
sg18
I614
sg19
V73.823727
p1725
sg21
VPaudphata police chowky
p1726
sa(dp1727
g16
V18.509019
p1728
sg18
I615
sg19
V73.831963
p1729
sg21
VNal stop
p1730
sa(dp1731
g16
V18.510551
p1732
sg18
I616
sg19
V73.834878
p1733
sg21
VPetrol pump karve road
p1734
sa(dp1735
g16
V18.512899
p1736
sg18
I618
sg19
V73.844905
p1737
sg21
VChitrashala
p1738
sa(dp1739
g16
V18.5082981
p1740
sg18
I619
sg19
V73.844732
p1741
sg21
VSadashiv Peth Houd
p1742
sa(dp1743
g16
V18.511898
p1744
sg18
I620
sg19
V73.85786
p1745
sg21
VGadikhana
p1746
sa(dp1747
g16
V18.506757
p1748
sg18
I622
sg19
V73.858026
p1749
sg21
VMamledar kacheri
p1750
sa(dp1751
g16
V18.504163
p1752
sg18
I623
sg19
V73.853548
p1753
sg21
VGokul bhavan
p1754
sa(dp1755
g16
V18.512798
p1756
sg18
I625
sg19
V73.852933
p1757
sg21
VShanipar Bus Stand
p1758
sa(dp1759
g16
V18.450434
p1760
sg18
I626
sg19
V73.8874799
p1761
sg21
VSambhaji Nagar
p1762
sa(dp1763
g16
V18.529991
p1764
sg18
I628
sg19
V73.86862
p1765
sg21
VRaja Bahadur mill
p1766
sa(dp1767
g16
V18.490968
p1768
sg18
I629
sg19
V73.827049
p1769
sg21
VRajaram pul
p1770
sa(dp1771
g16
V18.502839
p1772
sg18
I631
sg19
V73.926607
p1773
sg21
VMagarpatta
p1774
sa(dp1775
g16
V18.5204303
p1776
sg18
I632
sg19
V73.8567437
p1777
sg21
VGurushankar math
p1778
sa(dp1779
g16
V18.5019303
p1780
sg18
I634
sg19
V73.92496
p1781
sg21
VRam tekadi
p1782
sa(dp1783
g16
V18.477816
p1784
sg18
I636
sg19
V73.8975826
p1785
sg21
VBhatnagar 
p1786
sa(dp1787
g16
V18.511795
p1788
sg18
I637
sg19
V73.9058534
p1789
sg21
VUday Bag 
p1790
sa(dp1791
g16
V18.5144365
p1792
sg18
I638
sg19
V73.8998307
p1793
sg21
VSopan Bag 
p1794
sa(dp1795
g16
V18.585787
p1796
sg18
I640
sg19
V73.812963
p1797
sg21
VKawade Nagar 
p1798
sa(dp1799
g16
V18.519537
p1800
sg18
I641
sg19
V73.906534
p1801
sg21
VKalashankar
p1802
sa(dp1803
g16
V18.524484
p1804
sg18
I642
sg19
V73.906355
p1805
sg21
VVatare mala
p1806
sa(dp1807
g16
V18.528565
p1808
sg18
I643
sg19
V73.906239
p1809
sg21
VShirke Company 
p1810
sa(dp1811
g16
V18.5229255
p1812
sg18
I645
sg19
V73.8677464
p1813
sg21
VGhorpadi Shala
p1814
sa(dp1815
g16
V18.518932
p1816
sg18
I647
sg19
V73.882399
p1817
sg21
VMilletory Depo Mitti Ghar
p1818
sa(dp1819
g16
V18.523308
p1820
sg18
I648
sg19
V73.88665
p1821
sg21
VFamily camp
p1822
sa(dp1823
g16
V18.519151
p1824
sg18
I649
sg19
V73.879542
p1825
sg21
VKhan Road
p1826
sa(dp1827
g16
V18.513657
p1828
sg18
I651
sg19
V73.852659
p1829
sg21
VVishrambag wada
p1830
sa(dp1831
g16
V18.5204303
p1832
sg18
I652
sg19
V73.8567437
p1833
sg21
VPhadake Haud
p1834
sa(dp1835
g16
V18.5204303
p1836
sg18
I654
sg19
V73.8567437
p1837
sg21
VRajiv Gandhi Nagar Upper Depot
p1838
sa(dp1839
g16
V18.467767
p1840
sg18
I655
sg19
V73.8632243
p1841
sg21
VUpper Indiranagar
p1842
sa(dp1843
g16
V18.468755
p1844
sg18
I657
sg19
V73.864166
p1845
sg21
VLower Indiranagar
p1846
sa(dp1847
g16
V18.4703742
p1848
sg18
I658
sg19
V73.8683697
p1849
sg21
VBibwewadi
p1850
sa(dp1851
g16
V18.4817828
p1852
sg18
I660
sg19
V73.8588139
p1853
sg21
VVasant Bag
p1854
sa(dp1855
g16
V18.486623
p1856
sg18
I661
sg19
V73.858156
p1857
sg21
VPushp Mangal karyalaya
p1858
sa(dp1859
g16
V18.5066779
p1860
sg18
I663
sg19
V73.8470523
p1861
sg21
VLokmanya nagar 
p1862
sa(dp1863
g16
V18.5925785
p1864
sg18
I664
sg19
V73.7183639
p1865
sg21
VGanjwewadi 
p1866
sa(dp1867
g16
V18.512564
p1868
sg18
I665
sg19
V73.843912
p1869
sg21
VAlka talkies 
p1870
sa(dp1871
g16
V18.5204303
p1872
sg18
I667
sg19
V73.8567437
p1873
sg21
VAmunition factory road
p1874
sa(dp1875
g16
V18.5667
p1876
sg18
I668
sg19
V73.8667
p1877
sg21
VKhadaki bajar
p1878
sa(dp1879
g16
V18.574512
p1880
sg18
I670
sg19
V73.832549
p1881
sg21
VBuddha Vihar
p1882
sa(dp1883
g16
V18.576109
p1884
sg18
I671
sg19
V73.830723
p1885
sg21
VShivaji putala dapodi
p1886
sa(dp1887
g16
V18.5801598
p1888
sg18
I672
sg19
V73.8304653
p1889
sg21
VMantri Niketan Dapodi
p1890
sa(dp1891
g16
V18.591203
p1892
sg18
I674
sg19
V73.81961
p1893
sg21
VSuvarna park
p1894
sa(dp1895
g16
V18.575547
p1896
sg18
I675
sg19
V73.815303
p1897
sg21
VPanyachi Taki Pimple Gurav
p1898
sa(dp1899
g16
V18.5867193
p1900
sg18
I676
sg19
V73.8154394
p1901
sg21
VPimple gurav
p1902
sa(dp1903
g16
V18.5041413
p1904
sg18
I678
sg19
V73.7994473
p1905
sg21
VGuruganesh Nagar
p1906
sa(dp1907
g16
V18.502481
p1908
sg18
I679
sg19
V73.801544
p1909
sg21
VAshish Garden
p1910
sa(dp1911
g16
V18.496374
p1912
sg18
I681
sg19
V73.802072
p1913
sg21
VSahajanand Soc
p1914
sa(dp1915
g16
V18.5204303
p1916
sg18
I682
sg19
V73.8567437
p1917
sg21
VGandhibhavan Andhshala
p1918
sa(dp1919
g16
V18.5204303
p1920
sg18
I684
sg19
V73.8567437
p1921
sg21
VPanyachi Taki Chandannagar
p1922
sa(dp1923
g16
V18.4940191
p1924
sg18
I685
sg19
V73.8257325
p1925
sg21
VSalunke hospital
p1926
sa(dp1927
g16
V18.5204303
p1928
sg18
I686
sg19
V73.8567437
p1929
sg21
VSundarbai shala
p1930
sa(dp1931
g16
V18.5204303
p1932
sg18
I688
sg19
V73.8567437
p1933
sg21
VKarehar company
p1934
sa(dp1935
g16
V18.551136
p1936
sg18
I689
sg19
V73.928983
p1937
sg21
VRaghuveer Nagar
p1938
sa(dp1939
g16
V18.5204303
p1940
sg18
I691
sg19
V73.8567437
p1941
sg21
VAlear weare housing
p1942
sa(dp1943
g16
V18.5204303
p1944
sg18
I692
sg19
V73.8567437
p1945
sg21
VJog Engineering
p1946
sa(dp1947
g16
V18.5204303
p1948
sg18
I693
sg19
V73.8567437
p1949
sg21
VVishnu Udyog
p1950
sa(dp1951
g16
V18.558549
p1952
sg18
I695
sg19
V73.9341451
p1953
sg21
VPratik nagar
p1954
sa(dp1955
g16
V18.506894
p1956
sg18
I696
sg19
V73.783031
p1957
sg21
VMail Dagad Kramank 8
p1958
sa(dp1959
g16
V18.507534
p1960
sg18
I697
sg19
V73.778459
p1961
sg21
VRajwade banglaow
p1962
sa(dp1963
g16
V18.5291664
p1964
sg18
I699
sg19
V73.83884
p1965
sg21
VBhagwat wasti
p1966
sa(dp1967
g16
V18.506844
p1968
sg18
I700
sg19
V73.768379
p1969
sg21
VDeshmukh wasti
p1970
sa(dp1971
g16
V18.503208
p1972
sg18
I702
sg19
V73.760955
p1973
sg21
VDaulat Garden
p1974
sa(dp1975
g16
V18.50153
p1976
sg18
I703
sg19
V73.758089
p1977
sg21
VBhugoan
p1978
sa(dp1979
g16
V18.5204303
p1980
sg18
I704
sg19
V73.8567437
p1981
sg21
VChukate wasti
p1982
sa(dp1983
g16
V18.5204303
p1984
sg18
I706
sg19
V73.8567437
p1985
sg21
VTangde Bandhu Mala
p1986
sa(dp1987
g16
V18.5204303
p1988
sg18
I707
sg19
V73.8567437
p1989
sg21
VMail Dagad Kramank 18
p1990
sa(dp1991
g16
V18.498163
p1992
sg18
I709
sg19
V73.714696
p1993
sg21
VBhukoom Ashram
p1994
sa(dp1995
g16
V18.498453
p1996
sg18
I710
sg19
V73.719136
p1997
sg21
VBandal farm
p1998
sa(dp1999
g16
V18.498163
p2000
sg18
I711
sg19
V73.714696
p2001
sg21
VAshram
p2002
sa(dp2003
g16
V18.510945
p2004
sg18
I713
sg19
V73.694872
p2005
sg21
VMail Dagad Kramank 22
p2006
sa(dp2007
g16
V18.510205
p2008
sg18
I714
sg19
V73.689359
p2009
sg21
VLavale Phata
p2010
sa(dp2011
g16
V18.51294
p2012
sg18
I715
sg19
V73.678408
p2013
sg21
VST stand pirangut
p2014
sa(dp2015
g16
V18.512912
p2016
sg18
I717
sg19
V73.677791
p2017
sg21
VGhotawale phata
p2018
sa(dp2019
g16
V18.5204303
p2020
sg18
I718
sg19
V73.8567437
p2021
sg21
VStage no.6
p2022
sa(dp2023
g16
V18.5204303
p2024
sg18
I720
sg19
V73.8567437
p2025
sg21
VKopo Phata Bormal
p2026
sa(dp2027
g16
V18.5204303
p2028
sg18
I721
sg19
V73.8567437
p2029
sg21
VPoolachi wadi
p2030
sa(dp2031
g16
V18.5204303
p2032
sg18
I723
sg19
V73.8567437
p2033
sg21
VPravin Masala Company
p2034
sa(dp2035
g16
V18.5204303
p2036
sg18
I724
sg19
V73.8567437
p2037
sg21
VAshok Layland
p2038
sa(dp2039
g16
V18.5204303
p2040
sg18
I726
sg19
V73.8567437
p2041
sg21
VKalubai Jog Mandir
p2042
sa(dp2043
g16
V18.5204303
p2044
sg18
I727
sg19
V73.8567437
p2045
sg21
VShivanand Enclave Company
p2046
sa(dp2047
g16
V18.603829
p2048
sg18
I728
sg19
V73.776539
p2049
sg21
VKalewadigaon phata
p2050
sa(dp2051
g16
V18.258591
p2052
sg18
I730
sg19
V73.88531
p2053
sg21
VDalvi wasti
p2054
sa(dp2055
g16
V18.255063
p2056
sg18
I731
sg19
V73.883645
p2057
sg21
VNasrapur ST Stand
p2058
sa(dp2059
g16
V18.50801
p2060
sg18
I733
sg19
V73.879397
p2061
sg21
Vjuna pul gate
p2062
sa(dp2063
g16
V18.5204303
p2064
sg18
I734
sg19
V73.8567437
p2065
sg21
VMahatma gandhi stand
p2066
sa(dp2067
g16
V18.5102464
p2068
sg18
I735
sg19
V73.893373
p2069
sg21
VRace course
p2070
sa(dp2071
g16
V18.5043381
p2072
sg18
I737
sg19
V73.9029138
p2073
sg21
VFatimanagar
p2074
sa(dp2075
g16
V18.50475
p2076
sg18
I738
sg19
V73.901053
p2077
sg21
VShivarkar Garden
p2078
sa(dp2079
g16
V18.492024
p2080
sg18
I740
sg19
V73.900162
p2081
sg21
VJagtap chauk
p2082
sa(dp2083
g16
V18.4989051
p2084
sg18
I741
sg19
V73.9025463
p2085
sg21
VKedarinagar 
p2086
sa(dp2087
g16
V18.489398
p2088
sg18
I742
sg19
V73.899963
p2089
sg21
VKedari corner 
p2090
sa(dp2091
g16
V18.4799816
p2092
sg18
I744
sg19
V73.9043836
p2093
sg21
VSalunke Vihar
p2094
sa(dp2095
g16
V18.484198
p2096
sg18
I745
sg19
V73.905517
p2097
sg21
VAzadnagar
p2098
sa(dp2099
g16
V18.5204303
p2100
sg18
I747
sg19
V73.8567437
p2101
sg21
VLakshmimata Mandir Mohammadwadi
p2102
sa(dp2103
g16
V18.5204303
p2104
sg18
I749
sg19
V73.8567437
p2105
sg21
VNew hind school
p2106
sa(dp2107
g16
V18.50921
p2108
sg18
I750
sg19
V73.872776
p2109
sg21
VJuna motor stand
p2110
sa(dp2111
g16
V18.507339
p2112
sg18
I751
sg19
V73.871168
p2113
sg21
VKashiwadi 
p2114
sa(dp2115
g16
V18.5204303
p2116
sg18
I1550
sg19
V73.8567437
p2117
sg21
VSpedor Country cluB Gate 2
p2118
sa(dp2119
g16
V18.5204303
p2120
sg18
I755
sg19
V73.8567437
p2121
sg21
VAlpana Talkies
p2122
sa(dp2123
g16
V18.515744
p2124
sg18
I757
sg19
V73.856806
p2125
sg21
VCity post
p2126
sa(dp2127
g16
V18.5204303
p2128
sg18
I758
sg19
V73.8567437
p2129
sg21
VVanaz company
p2130
sa(dp2131
g16
V18.4871425
p2132
sg18
I760
sg19
V73.8624893
p2133
sg21
VMaharshi nagar
p2134
sa(dp2135
g16
V18.7461749
p2136
sg18
I761
sg19
V73.415765
p2137
sg21
VSant namdeo vidyalay
p2138
sa(dp2139
g16
V18.529951
p2140
sg18
I763
sg19
V73.851043
p2141
sg21
VBank of maharashtra
p2142
sa(dp2143
g16
V18.5204303
p2144
sg18
I764
sg19
V73.8567437
p2145
sg21
VCOD office
p2146
sa(dp2147
g16
V18.525395
p2148
sg18
I766
sg19
V73.878866
p2149
sg21
VCouncil Hall
p2150
sa(dp2151
g16
V18.525762
p2152
sg18
I767
sg19
V73.876606
p2153
sg21
VIncome tax office
p2154
sa(dp2155
g16
V18.5204303
p2156
sg18
I769
sg19
V73.8567437
p2157
sg21
VMatchwel company
p2158
sa(dp2159
g16
V18.5454572
p2160
sg18
I770
sg19
V73.9221359
p2161
sg21
VDatta mandir Wadgaon sheri
p2162
sa(dp2163
g16
V18.5287538
p2164
sg18
I772
sg19
V73.8731475
p2165
sg21
VJayprakash Stand Pune station
p2166
sa(dp2167
g16
V18.545795
p2168
sg18
I773
sg19
V73.887882
p2169
sg21
VNeeta park
p2170
sa(dp2171
g16
V18.5072238
p2172
sg18
I775
sg19
V73.8566097
p2173
sg21
VWhite House
p2174
sa(dp2175
g16
V18.552009
p2176
sg18
I776
sg19
V73.889595
p2177
sg21
VNetaji school
p2178
sa(dp2179
g16
V18.5204303
p2180
sg18
I777
sg19
V73.8567437
p2181
sg21
VVikrikar Karyalaya
p2182
sa(dp2183
g16
V18.5629104
p2184
sg18
I779
sg19
V73.8939134
p2185
sg21
VNagpur chawl
p2186
sa(dp2187
g16
V18.5204303
p2188
sg18
I780
sg19
V73.8567437
p2189
sg21
VGuardroom gate
p2190
sa(dp2191
g16
V18.5707263
p2192
sg18
I781
sg19
V73.9043836
p2193
sg21
VSanjay park
p2194
sa(dp2195
g16
V18.5204303
p2196
sg18
I783
sg19
V73.8567437
p2197
sg21
VBurmashell
p2198
sa(dp2199
g16
V18.5862229
p2200
sg18
I784
sg19
V73.9193407
p2201
sg21
VKalwad
p2202
sa(dp2203
g16
V18.5204303
p2204
sg18
I786
sg19
V73.8567437
p2205
sg21
VCentral school khese
p2206
sa(dp2207
g16
V18.5937036
p2208
sg18
I787
sg19
V73.9226671
p2209
sg21
VWater tank
p2210
sa(dp2211
g16
V18.5204303
p2212
sg18
I789
sg19
V73.8567437
p2213
sg21
VBalaji super market
p2214
sa(dp2215
g16
V18.5204303
p2216
sg18
I790
sg19
V73.8567437
p2217
sg21
VKirti Grapes
p2218
sa(dp2219
g16
V18.5204303
p2220
sg18
I792
sg19
V73.8567437
p2221
sg21
VAtma Anand Dhyan Kendra
p2222
sa(dp2223
g16
V18.6035851
p2224
sg18
I793
sg19
V73.9312734
p2225
sg21
VShinde wasti lohgoan
p2226
sa(dp2227
g16
V18.5204303
p2228
sg18
I795
sg19
V73.8567437
p2229
sg21
VLakshmi Provision Stores
p2230
sa(dp2231
g16
V18.5204303
p2232
sg18
I796
sg19
V73.8567437
p2233
sg21
VPatil Wasti Wadgaon Shinde
p2234
sa(dp2235
g16
V18.0749064
p2236
sg18
I797
sg19
V74.5600592
p2237
sg21
VZila Parishad School
p2238
sa(dp2239
g16
V18.5204303
p2240
sg18
I799
sg19
V73.8567437
p2241
sg21
VGreen Oaks Company
p2242
sa(dp2243
g16
V18.5204303
p2244
sg18
I800
sg19
V73.8567437
p2245
sg21
VMangesh nagar
p2246
sa(dp2247
g16
V18.5204303
p2248
sg18
I802
sg19
V73.8567437
p2249
sg21
VKonark Nagar Corner
p2250
sa(dp2251
g16
V18.569903
p2252
sg18
I803
sg19
V73.911136
p2253
sg21
VKonark Nagar
p2254
sa(dp2255
g16
V18.57266
p2256
sg18
I804
sg19
V73.911666
p2257
sg21
VGangapuram Mhada
p2258
sa(dp2259
g16
V18.717599
p2260
sg18
I806
sg19
V73.76779
p2261
sg21
VDehugaon Grampanchayat
p2262
sa(dp2263
g16
V18.711513
p2264
sg18
I807
sg19
V73.760995
p2265
sg21
VMalwadi Dehu
p2266
sa(dp2267
g16
V18.5204303
p2268
sg18
I809
sg19
V73.8567437
p2269
sg21
VZhende mala
p2270
sa(dp2271
g16
V18.5204303
p2272
sg18
I810
sg19
V73.8567437
p2273
sg21
VCOD corner
p2274
sa(dp2275
g16
V18.5245052
p2276
sg18
I811
sg19
V73.8414833
p2277
sg21
VPaduka Mandir
p2278
sa(dp2279
g16
V18.678599
p2280
sg18
I813
sg19
V73.742183
p2281
sg21
VAshoknagar Dehuroad
p2282
sa(dp2283
g16
V18.6807904
p2284
sg18
I815
sg19
V73.7470502
p2285
sg21
VGarden City
p2286
sa(dp2287
g16
V18.4701033
p2288
sg18
I816
sg19
V73.7641497
p2289
sg21
VKendriya Vidyalaya
p2290
sa(dp2291
g16
V18.5204303
p2292
sg18
I817
sg19
V73.8567437
p2293
sg21
VB Sub Depot
p2294
sa(dp2295
g16
V18.5204303
p2296
sg18
I818
sg19
V73.8567437
p2297
sg21
VKohima Line
p2298
sa(dp2299
g16
V18.5350453
p2300
sg18
I820
sg19
V73.8328087
p2301
sg21
VBank of badoda
p2302
sa(dp2303
g16
V18.457392
p2304
sg18
I821
sg19
V73.804411
p2305
sg21
VGreen ekars
p2306
sa(dp2307
g16
V18.4857425
p2308
sg18
I823
sg19
V74.1217938
p2309
sg21
VChaudhari wasti
p2310
sa(dp2311
g16
V18.4770575
p2312
sg18
I824
sg19
V74.0960995
p2313
sg21
VSortapwadi
p2314
sa(dp2315
g16
V18.5204303
p2316
sg18
I826
sg19
V73.8567437
p2317
sg21
VInamdar Wasti 
p2318
sa(dp2319
g16
V18.5512304
p2320
sg18
I827
sg19
V73.7990016
p2321
sg21
VBhosale Wasti 
p2322
sa(dp2323
g16
V18.4833333
p2324
sg18
I829
sg19
V74.1333333
p2325
sg21
VUrali Kanchan
p2326
sa(dp2327
g16
V18.5204303
p2328
sg18
I830
sg19
V73.8567437
p2329
sg21
VNagarroad Phata Shriramnagar
p2330
sa(dp2331
g16
V18.504394
p2332
sg18
I831
sg19
V73.8201035
p2333
sg21
VNaik bungalow
p2334
sa(dp2335
g16
V18.5204303
p2336
sg18
I833
sg19
V73.8567437
p2337
sg21
VRamnarayan Bungalow
p2338
sa(dp2339
g16
V18.5204303
p2340
sg18
I834
sg19
V73.8567437
p2341
sg21
VLieson company
p2342
sa(dp2343
g16
V18.6532361
p2344
sg18
I836
sg19
V73.908793
p2345
sg21
VWagholi
p2346
sa(dp2347
g16
V18.5204303
p2348
sg18
I838
sg19
V73.8567437
p2349
sg21
VPacharne wasti
p2350
sa(dp2351
g16
V18.5204303
p2352
sg18
I839
sg19
V73.8567437
p2353
sg21
VBharti Jain Sanghatna College
p2354
sa(dp2355
g16
V18.6287285
p2356
sg18
I841
sg19
V74.0329499
p2357
sg21
VLonikand
p2358
sa(dp2359
g16
V18.5204303
p2360
sg18
I842
sg19
V73.8567437
p2361
sg21
VPhulgaon Phata
p2362
sa(dp2363
g16
V18.5204303
p2364
sg18
I844
sg19
V73.8567437
p2365
sg21
VMail Dagad Kramank 23
p2366
sa(dp2367
g16
V18.641172
p2368
sg18
I845
sg19
V74.050471
p2369
sg21
VPerne Phata
p2370
sa(dp2371
g16
V18.5204303
p2372
sg18
I846
sg19
V73.8567437
p2373
sg21
VWalke Wasti
p2374
sa(dp2375
g16
V18.5204303
p2376
sg18
I847
sg19
V73.8567437
p2377
sg21
VPerne Gaon
p2378
sa(dp2379
g16
V18.623593
p2380
sg18
I849
sg19
V74.073874
p2381
sg21
VDongergaon Phata
p2382
sa(dp2383
g16
V18.6216954
p2384
sg18
I850
sg19
V73.9602287
p2385
sg21
VShinde Wasti 
p2386
sa(dp2387
g16
V18.657166
p2388
sg18
I852
sg19
V73.899111
p2389
sg21
VDabhade Wasti
p2390
sa(dp2391
g16
V18.53273
p2392
sg18
I853
sg19
V73.91821
p2393
sg21
VGaikwad Wasti
p2394
sa(dp2395
g16
V18.5204303
p2396
sg18
I855
sg19
V73.8567437
p2397
sg21
VHarpale wasti Burkegaon
p2398
sa(dp2399
g16
V18.6095724
p2400
sg18
I856
sg19
V74.1284003
p2401
sg21
VPimpri Saandas
p2402
sa(dp2403
g16
V18.6173028
p2404
sg18
I858
sg19
V74.1680347
p2405
sg21
VNhavi Sandas
p2406
sa(dp2407
g16
V18.5204303
p2408
sg18
I859
sg19
V73.8567437
p2409
sg21
VLakshmi narayan theature
p2410
sa(dp2411
g16
V18.5204303
p2412
sg18
I861
sg19
V73.8567437
p2413
sg21
VDate Engineering
p2414
sa(dp2415
g16
V18.5204303
p2416
sg18
I862
sg19
V73.8567437
p2417
sg21
VBhim Jyoti Soc.
p2418
sa(dp2419
g16
V18.497925
p2420
sg18
I864
sg19
V73.826951
p2421
sg21
VAlankar Police Chowki
p2422
sa(dp2423
g16
V18.4954857
p2424
sg18
I865
sg19
V73.8291328
p2425
sg21
VNav Sahyadri Sabhagruha
p2426
sa(dp2427
g16
V18.509184
p2428
sg18
I867
sg19
V73.8460939
p2429
sg21
VVitthal Mandir Karvenagar
p2430
sa(dp2431
g16
V18.5204303
p2432
sg18
I868
sg19
V73.8567437
p2433
sg21
VShriman Society
p2434
sa(dp2435
g16
V18.474689
p2436
sg18
I870
sg19
V73.8022046
p2437
sg21
VWarje Malwadi
p2438
sa(dp2439
g16
V18.4558393
p2440
sg18
I871
sg19
V73.8209234
p2441
sg21
VShivane Gaon
p2442
sa(dp2443
g16
V18.466865
p2444
sg18
I873
sg19
V73.779361
p2445
sg21
VAhire gate phata
p2446
sa(dp2447
g16
V18.460409
p2448
sg18
I874
sg19
V73.772238
p2449
sg21
VUttamnagar
p2450
sa(dp2451
g16
V18.455919
p2452
sg18
I876
sg19
V73.768468
p2453
sg21
VNDA gate Kondhva Gate
p2454
sa(dp2455
g16
V18.5204303
p2456
sg18
I877
sg19
V73.8567437
p2457
sg21
VDnyaneshwar paduka chauk
p2458
sa(dp2459
g16
V18.5324846
p2460
sg18
I879
sg19
V73.8374954
p2461
sg21
VModel colony
p2462
sa(dp2463
g16
V18.5204303
p2464
sg18
I880
sg19
V73.8567437
p2465
sg21
VDeep Bungalow Chowk
p2466
sa(dp2467
g16
V18.5292326
p2468
sg18
I882
sg19
V73.8249973
p2469
sg21
VJanwadi
p2470
sa(dp2471
g16
V18.533155
p2472
sg18
I883
sg19
V73.8211231
p2473
sg21
VMaharashtra Housing Niljyoti
p2474
sa(dp2475
g16
V18.524614
p2476
sg18
I884
sg19
V73.856112
p2477
sg21
VPimpri Manapa
p2478
sa(dp2479
g16
V18.6285832
p2480
sg18
I886
sg19
V73.7878659
p2481
sg21
VManik Colony
p2482
sa(dp2483
g16
V18.629409
p2484
sg18
I887
sg19
V73.786666
p2485
sg21
VDarshan hall
p2486
sa(dp2487
g16
V18.7791889
p2488
sg18
I889
sg19
V73.8120389
p2489
sg21
VChinchwade Farm
p2490
sa(dp2491
g16
V18.633659
p2492
sg18
I890
sg19
V73.764866
p2493
sg21
VAher garden
p2494
sa(dp2495
g16
V18.5204303
p2496
sg18
I891
sg19
V73.8567437
p2497
sg21
VWalhekarwadi
p2498
sa(dp2499
g16
V18.4471665
p2500
sg18
I893
sg19
V73.8108211
p2501
sg21
VD.Y.Patil corner
p2502
sa(dp2503
g16
V18.534799
p2504
sg18
I895
sg19
V73.879601
p2505
sg21
VD Y Patil Chowk
p2506
sa(dp2507
g16
V18.645935
p2508
sg18
I896
sg19
V73.766419
p2509
sg21
VGurudwara Chowk
p2510
sa(dp2511
g16
V18.5204303
p2512
sg18
I897
sg19
V73.8567437
p2513
sg21
VMimli Garden
p2514
sa(dp2515
g16
V18.5204303
p2516
sg18
I898
sg19
V73.8567437
p2517
sg21
VAtharva Park
p2518
sa(dp2519
g16
V18.5204303
p2520
sg18
I900
sg19
V73.8567437
p2521
sg21
VPolcompany
p2522
sa(dp2523
g16
V18.8149596
p2524
sg18
I901
sg19
V74.4459679
p2525
sg21
VWaghmare wasti
p2526
sa(dp2527
g16
V18.5204303
p2528
sg18
I903
sg19
V73.8567437
p2529
sg21
VIndustrial Company
p2530
sa(dp2531
g16
V18.5204303
p2532
sg18
I905
sg19
V73.8567437
p2533
sg21
VVishrant Dham
p2534
sa(dp2535
g16
V18.5204303
p2536
sg18
I906
sg19
V73.8567437
p2537
sg21
VWadhu Bu
p2538
sa(dp2539
g16
V18.5204303
p2540
sg18
I908
sg19
V73.8567437
p2541
sg21
VChaudhri Vasti
p2542
sa(dp2543
g16
V18.5512304
p2544
sg18
I909
sg19
V73.7990016
p2545
sg21
VBhosale Vasti
p2546
sa(dp2547
g16
V19.3657748
p2548
sg18
I911
sg19
V74.0242213
p2549
sg21
VKarandi Phata
p2550
sa(dp2551
g16
V18.7277511
p2552
sg18
I912
sg19
V74.0608558
p2553
sg21
VPanyachi Taki Karandi
p2554
sa(dp2555
g16
V18.5204303
p2556
sg18
I913
sg19
V73.8567437
p2557
sg21
VKarandigaon kaman
p2558
sa(dp2559
g16
V18.5175497
p2560
sg18
I915
sg19
V73.8659066
p2561
sg21
VVikasnagar Corner
p2562
sa(dp2563
g16
V18.5927957
p2564
sg18
I917
sg19
V73.7698492
p2565
sg21
VKaspate Vasti
p2566
sa(dp2567
g16
V18.608753
p2568
sg18
I918
sg19
V73.750792
p2569
sg21
VWakad Chowk
p2570
sa(dp2571
g16
V18.559766
p2572
sg18
I919
sg19
V73.815308
p2573
sg21
VA B Chauk Stand
p2574
sa(dp2575
g16
V18.5204303
p2576
sg18
I920
sg19
V73.8567437
p2577
sg21
VMhaske wasti
p2578
sa(dp2579
g16
V18.576733
p2580
sg18
I922
sg19
V73.876631
p2581
sg21
VR D colony
p2582
sa(dp2583
g16
V18.5684078
p2584
sg18
I924
sg19
V73.8813484
p2585
sg21
VMSEB Khadki 
p2586
sa(dp2587
g16
V18.559445
p2588
sg18
I925
sg19
V73.846395
p2589
sg21
VFactory Hospital
p2590
sa(dp2591
g16
V18.560732
p2592
sg18
I927
sg19
V73.841308
p2593
sg21
VKhadaki station corner
p2594
sa(dp2595
g16
V18.565536
p2596
sg18
I928
sg19
V73.82446
p2597
sg21
VBotanical garden
p2598
sa(dp2599
g16
V18.5204303
p2600
sg18
I929
sg19
V73.8567437
p2601
sg21
VSpicer College Press
p2602
sa(dp2603
g16
V18.557949
p2604
sg18
I931
sg19
V73.896087
p2605
sg21
VRakshak Soc.
p2606
sa(dp2607
g16
V18.5204303
p2608
sg18
I932
sg19
V73.8567437
p2609
sg21
VPimple Nilakh Shala
p2610
sa(dp2611
g16
V18.5799471
p2612
sg18
I933
sg19
V73.7874983
p2613
sg21
VPimple Nilakh
p2614
sa(dp2615
g16
V19.200565
p2616
sg18
I935
sg19
V72.973287
p2617
sg21
VS T Workshop
p2618
sa(dp2619
g16
V18.5556776
p2620
sg18
I936
sg19
V73.8302905
p2621
sg21
VP W D Gate
p2622
sa(dp2623
g16
V18.575605
p2624
sg18
I938
sg19
V73.810364
p2625
sg21
VBara gholap
p2626
sa(dp2627
g16
V18.595468
p2628
sg18
I939
sg19
V73.788428
p2629
sg21
VShivar Chowk
p2630
sa(dp2631
g16
V18.6002151
p2632
sg18
I940
sg19
V73.7938405
p2633
sg21
VSindhu Park
p2634
sa(dp2635
g16
V18.603268
p2636
sg18
I942
sg19
V73.792478
p2637
sg21
VRamnagar rahatani
p2638
sa(dp2639
g16
V18.5894857
p2640
sg18
I943
sg19
V73.895824
p2641
sg21
Vakate wasti
p2642
sa(dp2643
g16
V18.5980935
p2644
sg18
I945
sg19
V73.7995844
p2645
sg21
VRahatani phata
p2646
sa(dp2647
g16
V18.4208437
p2648
sg18
I946
sg19
V73.762495
p2649
sg21
VShrinagar
p2650
sa(dp2651
g16
V18.6518817
p2652
sg18
I948
sg19
V73.8521981
p2653
sg21
VTapgir nagar
p2654
sa(dp2655
g16
V18.526415
p2656
sg18
I949
sg19
V73.826976
p2657
sg21
VM M shala
p2658
sa(dp2659
g16
V18.6150264
p2660
sg18
I951
sg19
V73.7933809
p2661
sg21
VDhangar nagar kalewadi
p2662
sa(dp2663
g16
V18.6338649
p2664
sg18
I952
sg19
V73.7334431
p2665
sg21
VVijaynagar
p2666
sa(dp2667
g16
V18.618376
p2668
sg18
I953
sg19
V73.792043
p2669
sg21
VIngale hospital
p2670
sa(dp2671
g16
V18.5111468
p2672
sg18
I955
sg19
V73.8371508
p2673
sg21
VMaharashtra chauk
p2674
sa(dp2675
g16
V18.5204303
p2676
sg18
I956
sg19
V73.8567437
p2677
sg21
VHutatma chauk
p2678
sa(dp2679
g16
V18.513673
p2680
sg18
I957
sg19
V73.859569
p2681
sg21
VShatri chauk
p2682
sa(dp2683
g16
V18.5204303
p2684
sg18
I959
sg19
V73.8567437
p2685
sg21
VDighi Corner Odha
p2686
sa(dp2687
g16
V18.62682
p2688
sg18
I960
sg19
V73.864288
p2689
sg21
VTata stores
p2690
sa(dp2691
g16
V18.5204303
p2692
sg18
I962
sg19
V73.8567437
p2693
sg21
VMoje vidyalaya
p2694
sa(dp2695
g16
V18.5823781
p2696
sg18
I963
sg19
V73.8127709
p2697
sg21
VSai madnir
p2698
sa(dp2699
g16
V18.5204303
p2700
sg18
I965
sg19
V73.8567437
p2701
sg21
VGokhale Mala Sankalpa Garden
p2702
sa(dp2703
g16
V18.653948
p2704
sg18
I966
sg19
V73.884116
p2705
sg21
VWadmukhwadi
p2706
sa(dp2707
g16
V18.5204303
p2708
sg18
I968
sg19
V73.8567437
p2709
sg21
VCharholi phata
p2710
sa(dp2711
g16
V18.5204303
p2712
sg18
I970
sg19
V73.8567437
p2713
sg21
VMoshi Phata Dehu Phata
p2714
sa(dp2715
g16
V18.674405
p2716
sg18
I971
sg19
V73.8972404
p2717
sg21
VAlandi bus stand
p2718
sa(dp2719
g16
V18.52504
p2720
sg18
I972
sg19
V73.876765
p2721
sg21
VSadhu wasvani chauk
p2722
sa(dp2723
g16
V18.5204303
p2724
sg18
I974
sg19
V73.8567437
p2725
sg21
VSarabatwala chowk
p2726
sa(dp2727
g16
V18.5150605
p2728
sg18
I975
sg19
V73.8764303
p2729
sg21
VSachapeer Street
p2730
sa(dp2731
g16
V18.480297
p2732
sg18
I977
sg19
V73.805065
p2733
sg21
VWarje Gaon Highway
p2734
sa(dp2735
g16
V18.5204303
p2736
sg18
I978
sg19
V73.8567437
p2737
sg21
VElectronic sadan
p2738
sa(dp2739
g16
V18.540509
p2740
sg18
I980
sg19
V73.830538
p2741
sg21
VIndrayani nagar corner
p2742
sa(dp2743
g16
V18.631696
p2744
sg18
I981
sg19
V73.830628
p2745
sg21
VPower house bhosari
p2746
sa(dp2747
g16
V18.638099
p2748
sg18
I982
sg19
V73.825105
p2749
sg21
VGavalimatha
p2750
sa(dp2751
g16
V18.5204303
p2752
sg18
I984
sg19
V73.8567437
p2753
sg21
VTelco hostel
p2754
sa(dp2755
g16
V18.64461
p2756
sg18
I985
sg19
V73.81856
p2757
sg21
VTelco company
p2758
sa(dp2759
g16
V18.649634
p2760
sg18
I986
sg19
V73.809226
p2761
sg21
VKSB Chowk
p2762
sa(dp2763
g16
V18.5204303
p2764
sg18
I988
sg19
V73.8567437
p2765
sg21
VMorwadi Phata
p2766
sa(dp2767
g16
V18.460262
p2768
sg18
I989
sg19
V73.849149
p2769
sg21
VMohan Nagar
p2770
sa(dp2771
g16
V18.6572813
p2772
sg18
I991
sg19
V73.8002859
p2773
sg21
VLokmanya Hospital
p2774
sa(dp2775
g16
V18.5204303
p2776
sg18
I992
sg19
V73.8567437
p2777
sg21
VPrekshagruha
p2778
sa(dp2779
g16
V18.516141
p2780
sg18
I994
sg19
V73.8479426
p2781
sg21
VNarayan peth police chowky
p2782
sa(dp2783
g16
V18.4962948
p2784
sg18
I995
sg19
V73.8437247
p2785
sg21
VRaman bag
p2786
sa(dp2787
g16
V18.4962948
p2788
sg18
I997
sg19
V73.8437247
p2789
sg21
VRamanbag
p2790
sa(dp2791
g16
V18.4194658
p2792
sg18
I999
sg19
V73.8517501
p2793
sg21
VSukhsagar Nagar
p2794
sa(dp2795
g16
V18.5204303
p2796
sg18
I1000
sg19
V73.8567437
p2797
sg21
VKhandoba Mandir Corner
p2798
sa(dp2799
g16
V18.4516009
p2800
sg18
I1002
sg19
V73.8781088
p2801
sg21
VShri Shatrunjay Jain Temple
p2802
sa(dp2803
g16
V18.452697
p2804
sg18
I1003
sg19
V73.883522
p2805
sg21
VHill Villa
p2806
sa(dp2807
g16
V18.452978
p2808
sg18
I1005
sg19
V73.890933
p2809
sg21
VKhadi Machine
p2810
sa(dp2811
g16
V18.457239
p2812
sg18
I1006
sg19
V73.890762
p2813
sg21
VSomaji Khat Karkhana
p2814
sa(dp2815
g16
V18.461244
p2816
sg18
I1007
sg19
V73.890456
p2817
sg21
VTalab Farm
p2818
sa(dp2819
g16
V18.5204303
p2820
sg18
I1009
sg19
V73.8567437
p2821
sg21
VChaitanya Vidyalaya 
p2822
sa(dp2823
g16
V18.4687712
p2824
sg18
I1010
sg19
V73.8830701
p2825
sg21
VKondhva Khurd
p2826
sa(dp2827
g16
V18.5229255
p2828
sg18
I1011
sg19
V73.8677464
p2829
sg21
VKondhava Shala
p2830
sa(dp2831
g16
V18.622309
p2832
sg18
I1013
sg19
V73.8460874
p2833
sg21
VMahatma Phule wasahat
p2834
sa(dp2835
g16
V18.4697673
p2836
sg18
I1014
sg19
V73.9319407
p2837
sg21
VIndiranagar 
p2838
sa(dp2839
g16
V18.5862229
p2840
sg18
I1016
sg19
V73.9193407
p2841
sg21
VAirport
p2842
sa(dp2843
g16
V18.5629104
p2844
sg18
I1017
sg19
V73.8939134
p2845
sg21
VNagpur Chawl
p2846
sa(dp2847
g16
V18.513113
p2848
sg18
I1019
sg19
V73.879872
p2849
sg21
VBombay garaje
p2850
sa(dp2851
g16
V18.5675343
p2852
sg18
I1020
sg19
V73.8813614
p2853
sg21
VPMC School Pimpri
p2854
sa(dp2855
g16
V18.6658833
p2856
sg18
I1022
sg19
V73.7628792
p2857
sg21
VAppu Ghar
p2858
sa(dp2859
g16
V18.659358
p2860
sg18
I1023
sg19
V73.764899
p2861
sg21
VMukbadhir shala
p2862
sa(dp2863
g16
V18.656994
p2864
sg18
I1024
sg19
V73.765219
p2865
sg21
VBig India
p2866
sa(dp2867
g16
V18.5117757
p2868
sg18
I1026
sg19
V73.8499252
p2869
sg21
VGeetabhavan
p2870
sa(dp2871
g16
V18.651305
p2872
sg18
I1027
sg19
V73.77544
p2873
sg21
VAshoka
p2874
sa(dp2875
g16
V18.4930796
p2876
sg18
I1029
sg19
V73.9558204
p2877
sg21
VGanganagar
p2878
sa(dp2879
g16
V18.5204303
p2880
sg18
I1030
sg19
V73.8567437
p2881
sg21
VGiriraj Corner
p2882
sa(dp2883
g16
V18.6508219
p2884
sg18
I1032
sg19
V73.7673837
p2885
sg21
VAkurdi rly stn
p2886
sa(dp2887
g16
V18.5111468
p2888
sg18
I1034
sg19
V73.8371508
p2889
sg21
VSambhaji chowk
p2890
sa(dp2891
g16
V18.534799
p2892
sg18
I1035
sg19
V73.879601
p2893
sg21
VPatil chauk
p2894
sa(dp2895
g16
V18.64629
p2896
sg18
I1036
sg19
V73.770492
p2897
sg21
VRailway quarters
p2898
sa(dp2899
g16
V18.5204303
p2900
sg18
I1038
sg19
V73.8567437
p2901
sg21
VChinchwade Nagar Corner Akurdi Road
p2902
sa(dp2903
g16
V18.4883323
p2904
sg18
I1039
sg19
V73.8131
p2905
sg21
VChaitanya sabhagruha
p2906
sa(dp2907
g16
V18.649634
p2908
sg18
I1041
sg19
V73.809226
p2909
sg21
VKSB chauk
p2910
sa(dp2911
g16
V18.631696
p2912
sg18
I1042
sg19
V73.830628
p2913
sg21
VPower house Bhosari
p2914
sa(dp2915
g16
V18.5602954
p2916
sg18
I1044
sg19
V73.8074237
p2917
sg21
VCentury Company
p2918
sa(dp2919
g16
V18.5204303
p2920
sg18
I1045
sg19
V73.8567437
p2921
sg21
VElectronic Sadan
p2922
sa(dp2923
g16
V18.5204303
p2924
sg18
I1047
sg19
V73.8567437
p2925
sg21
VSangam Metal Company
p2926
sa(dp2927
g16
V18.5204303
p2928
sg18
I1048
sg19
V73.8567437
p2929
sg21
VKanda Engineering Company
p2930
sa(dp2931
g16
V18.531148
p2932
sg18
I1050
sg19
V73.669976
p2933
sg21
VBhar Phata
p2934
sa(dp2935
g16
V18.5204303
p2936
sg18
I1051
sg19
V73.8567437
p2937
sg21
VAlfa paper mill
p2938
sa(dp2939
g16
V18.5116908
p2940
sg18
I1052
sg19
V73.8032241
p2941
sg21
VHanuman chowk
p2942
sa(dp2943
g16
V18.5204303
p2944
sg18
I1054
sg19
V73.8567437
p2945
sg21
VGhotawade gaon
p2946
sa(dp2947
g16
V18.5142993
p2948
sg18
I1055
sg19
V73.8383979
p2949
sg21
VGreen Park hotel
p2950
sa(dp2951
g16
V18.4599851
p2952
sg18
I1057
sg19
V73.8896849
p2953
sg21
VAmbedkar nagar
p2954
sa(dp2955
g16
V18.604093
p2956
sg18
I1058
sg19
V73.7292051
p2957
sg21
VMurkute wasti
p2958
sa(dp2959
g16
V18.5204303
p2960
sg18
I1060
sg19
V73.8567437
p2961
sg21
VBaner odha
p2962
sa(dp2963
g16
V18.563405
p2964
sg18
I1061
sg19
V73.783134
p2965
sg21
VBalewadi Phata
p2966
sa(dp2967
g16
V19.2760507
p2968
sg18
I1063
sg19
V73.9817566
p2969
sg21
VSamadhi mandir
p2970
sa(dp2971
g16
V18.5204303
p2972
sg18
I1064
sg19
V73.8567437
p2973
sg21
VInsureance company
p2974
sa(dp2975
g16
V18.526415
p2976
sg18
I1066
sg19
V73.826976
p2977
sg21
VGokhalenagar shala
p2978
sa(dp2979
g16
V18.5285768
p2980
sg18
I1067
sg19
V73.8257325
p2981
sg21
VGokhalenagar
p2982
sa(dp2983
g16
V18.541845
p2984
sg18
I1069
sg19
V73.82766
p2985
sg21
VPadmavati Bus stand
p2986
sa(dp2987
g16
V18.564725
p2988
sg18
I1070
sg19
V73.850712
p2989
sg21
VPower house Padmavati
p2990
sa(dp2991
g16
V18.478792
p2992
sg18
I1071
sg19
V73.850657
p2993
sg21
VDate Bus stop
p2994
sa(dp2995
g16
V18.5246706
p2996
sg18
I1072
sg19
V73.8278922
p2997
sg21
VNandadeep
p2998
sa(dp2999
g16
V18.4947587
p3000
sg18
I1074
sg19
V73.8545733
p3001
sg21
VLaxminagar police chauki
p3002
sa(dp3003
g16
V18.5204303
p3004
sg18
I1075
sg19
V73.8567437
p3005
sg21
VCanbay Corner
p3006
sa(dp3007
g16
V18.5083433
p3008
sg18
I1077
sg19
V73.9546132
p3009
sg21
VMagar College
p3010
sa(dp3011
g16
V18.4765985
p3012
sg18
I1078
sg19
V73.8323492
p3013
sg21
VMahadeo nagar
p3014
sa(dp3015
g16
V18.5204303
p3016
sg18
I1080
sg19
V73.8567437
p3017
sg21
VDhere bangala
p3018
sa(dp3019
g16
V18.51238
p3020
sg18
I1081
sg19
V73.967988
p3021
sg21
VGopal Patti
p3022
sa(dp3023
g16
V18.9833329
p3024
sg18
I1083
sg19
V73.75
p3025
sg21
VRangicha wada
p3026
sa(dp3027
g16
V18.5202253
p3028
sg18
I1084
sg19
V73.9791012
p3029
sg21
VBelhekar wasti
p3030
sa(dp3031
g16
V18.5204303
p3032
sg18
I1086
sg19
V73.8567437
p3033
sg21
VManjri bu.
p3034
sa(dp3035
g16
V18.5204303
p3036
sg18
I1087
sg19
V73.8567437
p3037
sg21
VMaruti mandir ves
p3038
sa(dp3039
g16
V18.5204303
p3040
sg18
I1089
sg19
V73.8567437
p3041
sg21
VManjari Khurda Avhalwadi Phata
p3042
sa(dp3043
g16
V18.523561
p3044
sg18
I1090
sg19
V73.870318
p3045
sg21
VZila Parishad
p3046
sa(dp3047
g16
V18.518901
p3048
sg18
I1091
sg19
V73.860125
p3049
sg21
VPhadake Houd
p3050
sa(dp3051
g16
V18.5204303
p3052
sg18
I1093
sg19
V73.8567437
p3053
sg21
VMhasoba Chowk
p3054
sa(dp3055
g16
V18.498747
p3056
sg18
I1094
sg19
V73.838854
p3057
sg21
VRaksha Lekha Society
p3058
sa(dp3059
g16
V18.492252
p3060
sg18
I1096
sg19
V73.834255
p3061
sg21
VVitbhatti singhgad rd
p3062
sa(dp3063
g16
V18.5204303
p3064
sg18
I1097
sg19
V73.8567437
p3065
sg21
VVitthalwadi Jakat Naka
p3066
sa(dp3067
g16
V18.489225
p3068
sg18
I1098
sg19
V73.830747
p3069
sg21
VJaydeo nagar
p3070
sa(dp3071
g16
V18.5204303
p3072
sg18
I1100
sg19
V73.8567437
p3073
sg21
VVitthalwadi mandir hingne
p3074
sa(dp3075
g16
V18.5204303
p3076
sg18
I1101
sg19
V73.8567437
p3077
sg21
VShivpushpak park
p3078
sa(dp3079
g16
V18.5804018
p3080
sg18
I1103
sg19
V73.8152709
p3081
sg21
VKrushna mandir
p3082
sa(dp3083
g16
V18.4755434
p3084
sg18
I1104
sg19
V73.8137402
p3085
sg21
VSuncity
p3086
sa(dp3087
g16
V18.5268905
p3088
sg18
I1106
sg19
V73.9278113
p3089
sg21
VMagarpatta school
p3090
sa(dp3091
g16
V18.5204303
p3092
sg18
I1108
sg19
V73.8567437
p3093
sg21
VBapusaheb Magar wasti
p3094
sa(dp3095
g16
V18.5284964
p3096
sg18
I1109
sg19
V73.9323081
p3097
sg21
VKeertane Bag
p3098
sa(dp3099
g16
V18.5204303
p3100
sg18
I1110
sg19
V73.8567437
p3101
sg21
VDhamale wasti Mundhva
p3102
sa(dp3103
g16
V18.533802
p3104
sg18
I1112
sg19
V73.929892
p3105
sg21
VMundhava Gaon Corner
p3106
sa(dp3107
g16
V18.533852
p3108
sg18
I1113
sg19
V73.923752
p3109
sg21
VDiamond watch Company
p3110
sa(dp3111
g16
V18.5204303
p3112
sg18
I1115
sg19
V73.8567437
p3113
sg21
VTadi Gupta Wanaspati Sanshodhan Kendra
p3114
sa(dp3115
g16
V18.531281
p3116
sg18
I1116
sg19
V73.914076
p3117
sg21
VFarashi Karkhana
p3118
sa(dp3119
g16
V18.52964
p3120
sg18
I1118
sg19
V73.907933
p3121
sg21
VArmy college
p3122
sa(dp3123
g16
V18.523308
p3124
sg18
I1119
sg19
V73.88665
p3125
sg21
VFamily Camp
p3126
sa(dp3127
g16
V18.4934484
p3128
sg18
I1121
sg19
V73.9324727
p3129
sg21
VPratibhanagar
p3130
sa(dp3131
g16
V18.4632408
p3132
sg18
I1122
sg19
V73.8520598
p3133
sg21
VGulabnagar
p3134
sa(dp3135
g16
V18.5204303
p3136
sg18
I1124
sg19
V73.8567437
p3137
sg21
VShubham Hotel
p3138
sa(dp3139
g16
V18.5204303
p3140
sg18
I1125
sg19
V73.8567437
p3141
sg21
VAhilyadevi Shala
p3142
sa(dp3143
g16
V18.52159
p3144
sg18
I1126
sg19
V73.855775
p3145
sg21
VSurya hopsital
p3146
sa(dp3147
g16
V18.5204303
p3148
sg18
I1127
sg19
V73.8567437
p3149
sg21
VPawale chauk
p3150
sa(dp3151
g16
V18.52235
p3152
sg18
I1129
sg19
V73.865135
p3153
sg21
VSadanand nagar
p3154
sa(dp3155
g16
V18.5571993
p3156
sg18
I1130
sg19
V73.8453063
p3157
sg21
VKhadaki police station
p3158
sa(dp3159
g16
V18.5801598
p3160
sg18
I1132
sg19
V73.8304653
p3161
sg21
VMantri niketan Dapodi
p3162
sa(dp3163
g16
V18.5204303
p3164
sg18
I1133
sg19
V73.8567437
p3165
sg21
VShitaladevi Mandir 
p3166
sa(dp3167
g16
V18.7167
p3168
sg18
I1136
sg19
V73.6833
p3169
sg21
VST Stand Gram Panchayat Talegaon
p3170
sa(dp3171
g16
V18.5204303
p3172
sg18
I1137
sg19
V73.8567437
p3173
sg21
VTalegao Dhamdhere Bazar
p3174
sa(dp3175
g16
V18.5204303
p3176
sg18
I1139
sg19
V73.8567437
p3177
sg21
VLakshmiBai Mandir
p3178
sa(dp3179
g16
V18.7545716
p3180
sg18
I1140
sg19
V73.8601774
p3181
sg21
VST Stand Chakan Road
p3182
sa(dp3183
g16
V18.5204303
p3184
sg18
I1142
sg19
V73.8567437
p3185
sg21
VJakate wasti
p3186
sa(dp3187
g16
V18.6689214
p3188
sg18
I1143
sg19
V74.0975678
p3189
sg21
VSanaswadi
p3190
sa(dp3191
g16
V18.5204303
p3192
sg18
I1145
sg19
V73.8567437
p3193
sg21
VEkora Company Kalyani Forbes
p3194
sa(dp3195
g16
V18.5204303
p3196
sg18
I1146
sg19
V73.8567437
p3197
sg21
VBafna Industries
p3198
sa(dp3199
g16
V18.5204303
p3200
sg18
I1148
sg19
V73.8567437
p3201
sg21
VPhulgaon phata
p3202
sa(dp3203
g16
V18.5204303
p3204
sg18
I1149
sg19
V73.8567437
p3205
sg21
VSatva high school
p3206
sa(dp3207
g16
V18.504394
p3208
sg18
I1151
sg19
V73.8201035
p3209
sg21
VNaik Bungalow
p3210
sa(dp3211
g16
V18.5204303
p3212
sg18
I1152
sg19
V73.8567437
p3213
sg21
VNEI company
p3214
sa(dp3215
g16
V18.5204303
p3216
sg18
I1154
sg19
V73.8567437
p3217
sg21
VDharmanagar 5 va mail
p3218
sa(dp3219
g16
V18.555108
p3220
sg18
I1155
sg19
V73.905778
p3221
sg21
VRamwadi jakatnaka
p3222
sa(dp3223
g16
V18.5204303
p3224
sg18
I1157
sg19
V73.8567437
p3225
sg21
VLakud Bajar 
p3226
sa(dp3227
g16
V18.505563
p3228
sg18
I1158
sg19
V73.868499
p3229
sg21
VSonwane hospital
p3230
sa(dp3231
g16
V18.575289
p3232
sg18
I1160
sg19
V73.814975
p3233
sg21
VPanyachi taki
p3234
sa(dp3235
g16
V18.543537
p3236
sg18
I1161
sg19
V73.784902
p3237
sg21
VSai chauk
p3238
sa(dp3239
g16
V18.585788
p3240
sg18
I1163
sg19
V73.816376
p3241
sg21
VKatepuram
p3242
sa(dp3243
g16
V18.5204303
p3244
sg18
I1164
sg19
V73.8567437
p3245
sg21
VNew pmc school
p3246
sa(dp3247
g16
V18.5204303
p3248
sg18
I1166
sg19
V73.8567437
p3249
sg21
VSai lila nagar kate wasti
p3250
sa(dp3251
g16
V18.5823781
p3252
sg18
I1168
sg19
V73.8127709
p3253
sg21
VSai mandir
p3254
sa(dp3255
g16
V18.62682
p3256
sg18
I1169
sg19
V73.864288
p3257
sg21
VTata Stores
p3258
sa(dp3259
g16
V18.5204303
p3260
sg18
I1170
sg19
V73.8567437
p3261
sg21
VDidhi corner odha
p3262
sa(dp3263
g16
V18.513673
p3264
sg18
I1172
sg19
V73.859569
p3265
sg21
VShastri chowk
p3266
sa(dp3267
g16
V18.5111468
p3268
sg18
I1173
sg19
V73.8371508
p3269
sg21
VMaharashtra Chowk
p3270
sa(dp3271
g16
V18.590694
p3272
sg18
I1175
sg19
V73.91543
p3273
sg21
VOfficers Mess
p3274
sa(dp3275
g16
V18.524298
p3276
sg18
I1176
sg19
V73.872334
p3277
sg21
VCentral building 
p3278
sa(dp3279
g16
V18.5204303
p3280
sg18
I1177
sg19
V73.8567437
p3281
sg21
Vkalasgaon
p3282
sa(dp3283
g16
V18.563068
p3284
sg18
I1179
sg19
V73.8064325
p3285
sg21
VWireless colony
p3286
sa(dp3287
g16
V18.607573
p3288
sg18
I1180
sg19
V73.873364
p3289
sg21
VAIT college
p3290
sa(dp3291
g16
V18.484678
p3292
sg18
I1182
sg19
V73.845238
p3293
sg21
VMitra sahakar nagar
p3294
sa(dp3295
g16
V18.4458118
p3296
sg18
I1183
sg19
V73.8466847
p3297
sg21
VDattanagar
p3298
sa(dp3299
g16
V18.5204303
p3300
sg18
I1185
sg19
V73.8567437
p3301
sg21
VAlandi jakat naka
p3302
sa(dp3303
g16
V18.5204303
p3304
sg18
I1187
sg19
V73.8567437
p3305
sg21
VDnyaneshwar Bhint
p3306
sa(dp3307
g16
V18.47728
p3308
sg18
I1188
sg19
V73.873785
p3309
sg21
VGanga Dham
p3310
sa(dp3311
g16
V18.499607
p3312
sg18
I1190
sg19
V73.869439
p3313
sg21
VApsara Talkies
p3314
sa(dp3315
g16
V18.564725
p3316
sg18
I1191
sg19
V73.850712
p3317
sg21
VPower house
p3318
sa(dp3319
g16
V18.487765
p3320
sg18
I1192
sg19
V73.8499576
p3321
sg21
VMitra sahkar nagar
p3322
sa(dp3323
g16
V18.659071
p3324
sg18
I1193
sg19
V73.7213063
p3325
sg21
VKiwale
p3326
sa(dp3327
g16
V18.5494576
p3328
sg18
I1195
sg19
V73.9142357
p3329
sg21
VAdarshnagar Corner
p3330
sa(dp3331
g16
V18.5381935
p3332
sg18
I1196
sg19
V73.7812713
p3333
sg21
VKivale phata
p3334
sa(dp3335
g16
V18.5204303
p3336
sg18
I1198
sg19
V73.8567437
p3337
sg21
VPetrol pump vikasnagar
p3338
sa(dp3339
g16
V18.5319063
p3340
sg18
I1199
sg19
V73.8765416
p3341
sg21
VMedical shop
p3342
sa(dp3343
g16
V18.5120489
p3344
sg18
I1201
sg19
V73.8365189
p3345
sg21
VShankar mandir
p3346
sa(dp3347
g16
V18.6388707
p3348
sg18
I1202
sg19
V73.7779386
p3349
sg21
VMIDC bhosari
p3350
sa(dp3351
g16
V18.5204303
p3352
sg18
I1306
sg19
V73.8567437
p3353
sg21
VDevendra Mangal Karyalaya
p3354
sa(dp3355
g16
V18.5204303
p3356
sg18
I1308
sg19
V73.8567437
p3357
sg21
VKarachi chowk
p3358
sa(dp3359
g16
V18.5204303
p3360
sg18
I1309
sg19
V73.8567437
p3361
sg21
VKrushnamandir corner
p3362
sa(dp3363
g16
V18.618376
p3364
sg18
I1310
sg19
V73.792043
p3365
sg21
VIngale Hospital
p3366
sa(dp3367
g16
V18.526415
p3368
sg18
I1312
sg19
V73.826976
p3369
sg21
VM M Shala
p3370
sa(dp3371
g16
V18.6518817
p3372
sg18
I1313
sg19
V73.8521981
p3373
sg21
VTapkir Nagar
p3374
sa(dp3375
g16
V18.4953248
p3376
sg18
I1314
sg19
V73.9484731
p3377
sg21
VSatavwadi
p3378
sa(dp3379
g16
V18.4895498
p3380
sg18
I1316
sg19
V73.9535244
p3381
sg21
VADP pune
p3382
sa(dp3383
g16
V18.5204303
p3384
sg18
I1317
sg19
V73.8567437
p3385
sg21
VBhekrai nagar
p3386
sa(dp3387
g16
V18.5204303
p3388
sg18
I1319
sg19
V73.8567437
p3389
sg21
VNavlakha Godown 
p3390
sa(dp3391
g16
V18.5204303
p3392
sg18
I1320
sg19
V73.8567437
p3393
sg21
VMantar Wadi phata 
p3394
sa(dp3395
g16
V18.5204303
p3396
sg18
I1321
sg19
V73.8567437
p3397
sg21
VUruli Devachi Phata
p3398
sa(dp3399
g16
V18.5204303
p3400
sg18
I1323
sg19
V73.8567437
p3401
sg21
VJalindre Bag 
p3402
sa(dp3403
g16
V18.5204303
p3404
sg18
I1324
sg19
V73.8567437
p3405
sg21
VWadi 10 Mail Phata 
p3406
sa(dp3407
g16
V18.426759
p3408
sg18
I1325
sg19
V73.98168
p3409
sg21
VWadaki nala 
p3410
sa(dp3411
g16
V18.5204303
p3412
sg18
I1326
sg19
V73.8567437
p3413
sg21
VRangan Khor 
p3414
sa(dp3415
g16
V18.7787421
p3416
sg18
I1328
sg19
V73.7227774
p3417
sg21
VJadhavwadi 
p3418
sa(dp3419
g16
V18.6150264
p3420
sg18
I1329
sg19
V73.7933809
p3421
sg21
VKalewadi 
p3422
sa(dp3423
g16
V18.5825868
p3424
sg18
I1330
sg19
V73.7683784
p3425
sg21
VDumewadi 
p3426
sa(dp3427
g16
V18.0228123
p3428
sg18
I1332
sg19
V74.6488264
p3429
sg21
VPawarwadi 
p3430
sa(dp3431
g16
V18.5204303
p3432
sg18
I1333
sg19
V73.8567437
p3433
sg21
VKirloskar company
p3434
sa(dp3435
g16
V18.345231
p3436
sg18
I1335
sg19
V74.031542
p3437
sg21
VSaswad Bus stand 
p3438
sa(dp3439
g16
V18.349877
p3440
sg18
I1336
sg19
V74.028861
p3441
sg21
VSaswad stand
p3442
sa(dp3443
g16
V18.5204303
p3444
sg18
I1338
sg19
V73.8567437
p3445
sg21
VSasane Hingane township
p3446
sa(dp3447
g16
V18.489086
p3448
sg18
I1339
sg19
V73.93763
p3449
sg21
VNirmal Township
p3450
sa(dp3451
g16
V18.57432
p3452
sg18
I1340
sg19
V73.892871
p3453
sg21
VGanesh mandir
p3454
sa(dp3455
g16
V18.5204303
p3456
sg18
I1342
sg19
V73.8567437
p3457
sg21
VJaykara bangalow
p3458
sa(dp3459
g16
V18.5155604
p3460
sg18
I1343
sg19
V73.8293919
p3461
sg21
VFilm Institute
p3462
sa(dp3463
g16
V18.666096
p3464
sg18
I1345
sg19
V73.935942
p3465
sg21
VThakur Wasti
p3466
sa(dp3467
g16
V18.692664
p3468
sg18
I1346
sg19
V73.914777
p3469
sg21
VRechared Company
p3470
sa(dp3471
g16
V18.626292
p3472
sg18
I1347
sg19
V73.751647
p3473
sg21
VPawar Wasti
p3474
sa(dp3475
g16
V18.698903
p3476
sg18
I1349
sg19
V73.919908
p3477
sg21
VGhenand wasti
p3478
sa(dp3479
g16
V18.5204303
p3480
sg18
I1204
sg19
V73.8567437
p3481
sg21
VTan protex
p3482
sa(dp3483
g16
V18.662099
p3484
sg18
I1205
sg19
V73.848475
p3485
sg21
VJuna jakat naka
p3486
sa(dp3487
g16
V18.671378
p3488
sg18
I1207
sg19
V73.848265
p3489
sg21
VBankar wasti moshi
p3490
sa(dp3491
g16
V18.5204303
p3492
sg18
I1208
sg19
V73.8567437
p3493
sg21
VMoshi Phata Chimbli Phata
p3494
sa(dp3495
g16
V18.5204303
p3496
sg18
I1210
sg19
V73.8567437
p3497
sg21
VProtact Company
p3498
sa(dp3499
g16
V18.5204303
p3500
sg18
I1211
sg19
V73.8567437
p3501
sg21
VWaki Khurda
p3502
sa(dp3503
g16
V18.5204303
p3504
sg18
I1213
sg19
V73.8567437
p3505
sg21
VBham
p3506
sa(dp3507
g16
V18.5204303
p3508
sg18
I1214
sg19
V73.8567437
p3509
sg21
VWaki Budruk
p3510
sa(dp3511
g16
V18.828936
p3512
sg18
I1216
sg19
V73.876738
p3513
sg21
VShiroli Phata
p3514
sa(dp3515
g16
V18.5204303
p3516
sg18
I1217
sg19
V73.8567437
p3517
sg21
VBhandari Company
p3518
sa(dp3519
g16
V18.5204303
p3520
sg18
I1219
sg19
V73.8567437
p3521
sg21
VKadus Phata
p3522
sa(dp3523
g16
V18.5204303
p3524
sg18
I1220
sg19
V73.8567437
p3525
sg21
VRajgurunagar Vidyalaya
p3526
sa(dp3527
g16
V18.8536125
p3528
sg18
I1221
sg19
V73.88454
p3529
sg21
VRajgurunagar Khed
p3530
sa(dp3531
g16
V18.500424
p3532
sg18
I1222
sg19
V73.672534
p3533
sg21
VMinilek company
p3534
sa(dp3535
g16
V18.5204303
p3536
sg18
I1224
sg19
V73.8567437
p3537
sg21
VGAF Filters
p3538
sa(dp3539
g16
V18.5204303
p3540
sg18
I1226
sg19
V73.8567437
p3541
sg21
VUrawade gaon
p3542
sa(dp3543
g16
V18.448084
p3544
sg18
I1227
sg19
V73.8308919
p3545
sg21
VAmbegaon Phata
p3546
sa(dp3547
g16
V18.480925
p3548
sg18
I1228
sg19
V73.661003
p3549
sg21
VLalghar
p3550
sa(dp3551
g16
V18.473479
p3552
sg18
I1230
sg19
V73.645226
p3553
sg21
VMarnewadi
p3554
sa(dp3555
g16
V18.5204303
p3556
sg18
I1231
sg19
V73.8567437
p3557
sg21
VTalemala
p3558
sa(dp3559
g16
V18.5204303
p3560
sg18
I1233
sg19
V73.8567437
p3561
sg21
VMordari phata
p3562
sa(dp3563
g16
V18.5204303
p3564
sg18
I1234
sg19
V73.8567437
p3565
sg21
VVitbhatti Kalyangaon
p3566
sa(dp3567
g16
V18.5448365
p3568
sg18
I1236
sg19
V73.7845339
p3569
sg21
VKalyangaon
p3570
sa(dp3571
g16
V18.4853903
p3572
sg18
I1237
sg19
V73.9397108
p3573
sg21
VMahadeo mandir
p3574
sa(dp3575
g16
V18.487291
p3576
sg18
I1239
sg19
V73.820816
p3577
sg21
VShridhar Colony
p3578
sa(dp3579
g16
V18.519931
p3580
sg18
I1240
sg19
V73.861469
p3581
sg21
VDaruwala Pool
p3582
sa(dp3583
g16
V18.5204303
p3584
sg18
I1242
sg19
V73.8567437
p3585
sg21
VGhorpadi Peth Colony
p3586
sa(dp3587
g16
V18.500523
p3588
sg18
I1243
sg19
V73.859593
p3589
sg21
VSwargate police line
p3590
sa(dp3591
g16
V18.439256
p3592
sg18
I1245
sg19
V73.895318
p3593
sg21
VKondhava Hospital
p3594
sa(dp3595
g16
V18.527644
p3596
sg18
I1246
sg19
V73.949798
p3597
sg21
VLonkar Wasti
p3598
sa(dp3599
g16
V18.5204303
p3600
sg18
I1247
sg19
V73.8567437
p3601
sg21
VSurya Kiran Khat Karkhana
p3602
sa(dp3603
g16
V18.4471901
p3604
sg18
I1249
sg19
V73.874985
p3605
sg21
VGokulnagar Katraj
p3606
sa(dp3607
g16
V18.448964
p3608
sg18
I1250
sg19
V73.869846
p3609
sg21
VSundarban
p3610
sa(dp3611
g16
V18.492854
p3612
sg18
I1251
sg19
V73.8239399
p3613
sg21
VSudarshan nagar Katraj
p3614
sa(dp3615
g16
V18.447537
p3616
sg18
I1253
sg19
V73.810282
p3617
sg21
VDhayarai gaon
p3618
sa(dp3619
g16
V18.5204303
p3620
sg18
I1254
sg19
V73.8567437
p3621
sg21
VDhayarigaon shala
p3622
sa(dp3623
g16
V18.4401119
p3624
sg18
I1256
sg19
V73.7998149
p3625
sg21
VDSK Vishwa
p3626
sa(dp3627
g16
V18.633612
p3628
sg18
I1257
sg19
V73.807355
p3629
sg21
VMasulkar Colony
p3630
sa(dp3631
g16
V18.634152
p3632
sg18
I1258
sg19
V73.810111
p3633
sg21
VAjmer school
p3634
sa(dp3635
g16
V18.6328814
p3636
sg18
I1260
sg19
V73.8180835
p3637
sg21
VWastu Udyog
p3638
sa(dp3639
g16
V18.512912
p3640
sg18
I1261
sg19
V73.677791
p3641
sg21
VShindewadi Ghotawale
p3642
sa(dp3643
g16
V18.5110959
p3644
sg18
I1262
sg19
V73.6635544
p3645
sg21
VKasar amboli
p3646
sa(dp3647
g16
V18.5204303
p3648
sg18
I1264
sg19
V73.8567437
p3649
sg21
VSutarwadi paudroad
p3650
sa(dp3651
g16
V18.5647832
p3652
sg18
I1265
sg19
V73.7799042
p3653
sg21
VNursery
p3654
sa(dp3655
g16
V18.5204303
p3656
sg18
I1267
sg19
V73.8567437
p3657
sg21
VMukund shobha udyan dattamandir
p3658
sa(dp3659
g16
V18.5204303
p3660
sg18
I1268
sg19
V73.8567437
p3661
sg21
VSanakata company
p3662
sa(dp3663
g16
V18.5204303
p3664
sg18
I1270
sg19
V73.8567437
p3665
sg21
VBalkavade wasti
p3666
sa(dp3667
g16
V18.5204303
p3668
sg18
I1272
sg19
V73.8567437
p3669
sg21
VForest Office Road
p3670
sa(dp3671
g16
V18.5204303
p3672
sg18
I1273
sg19
V73.8567437
p3673
sg21
VManik press road
p3674
sa(dp3675
g16
V18.5140297
p3676
sg18
I1275
sg19
V73.8206202
p3677
sg21
VShaskiya vishramgrah paud road
p3678
sa(dp3679
g16
V18.523109
p3680
sg18
I1276
sg19
V73.613664
p3681
sg21
VPaudgoan
p3682
sa(dp3683
g16
V18.509219
p3684
sg18
I1278
sg19
V73.8126909
p3685
sg21
VMedical Stores
p3686
sa(dp3687
g16
V18.5204303
p3688
sg18
I1279
sg19
V73.8567437
p3689
sg21
VGrampanchayat Tingrenagar
p3690
sa(dp3691
g16
V18.5599259
p3692
sg18
I1281
sg19
V73.9334103
p3693
sg21
VPathare Wasti 
p3694
sa(dp3695
g16
V18.5525321
p3696
sg18
I1282
sg19
V73.9379569
p3697
sg21
VBalaji Palace 
p3698
sa(dp3699
g16
V18.5705799
p3700
sg18
I1284
sg19
V73.9461665
p3701
sg21
VPatil Wasti Kharadi
p3702
sa(dp3703
g16
V18.5479754
p3704
sg18
I1285
sg19
V73.9451957
p3705
sg21
VKharadi Gaon
p3706
sa(dp3707
g16
V18.504506
p3708
sg18
I1286
sg19
V73.854814
p3709
sg21
VHirabag
p3710
sa(dp3711
g16
V18.5204303
p3712
sg18
I1288
sg19
V73.8567437
p3713
sg21
VSainathnagar Ashok Hotel 
p3714
sa(dp3715
g16
V18.5204303
p3716
sg18
I1289
sg19
V73.8567437
p3717
sg21
VThiite Vasti  KaluBai Mandir 
p3718
sa(dp3719
g16
V18.5601154
p3720
sg18
I1291
sg19
V73.7871306
p3721
sg21
VHinjewadi Gaon
p3722
sa(dp3723
g16
V18.6496322
p3724
sg18
I1292
sg19
V73.7448437
p3725
sg21
VWater Supply Ravet
p3726
sa(dp3727
g16
V18.6496322
p3728
sg18
I1293
sg19
V73.7448437
p3729
sg21
VRawet
p3730
sa(dp3731
g16
V18.5204303
p3732
sg18
I1295
sg19
V73.8567437
p3733
sg21
VPoultry farm Indrayani dhaba
p3734
sa(dp3735
g16
V18.5204303
p3736
sg18
I1296
sg19
V73.8567437
p3737
sg21
VPower House IT Park
p3738
sa(dp3739
g16
V18.5204303
p3740
sg18
I1298
sg19
V73.8567437
p3741
sg21
VCircle IT Park
p3742
sa(dp3743
g16
V18.5204303
p3744
sg18
I1299
sg19
V73.8567437
p3745
sg21
VInfosys Phase 3 Gawarwadi
p3746
sa(dp3747
g16
V18.50766
p3748
sg18
I1301
sg19
V73.808069
p3749
sg21
VVanaz corner
p3750
sa(dp3751
g16
V18.5111468
p3752
sg18
I1302
sg19
V73.8371508
p3753
sg21
VGanesh Chowk
p3754
sa(dp3755
g16
V18.49038
p3756
sg18
I1303
sg19
V73.936074
p3757
sg21
VDurvankur soc
p3758
sa(dp3759
g16
V18.5204303
p3760
sg18
I1305
sg19
V73.8567437
p3761
sg21
VRajmudra Soc
p3762
sa(dp3763
g16
V18.5204303
p3764
sg18
I1350
sg19
V73.8567437
p3765
sg21
VKoyali Phata
p3766
sa(dp3767
g16
V18.734027
p3768
sg18
I1351
sg19
V73.946583
p3769
sg21
VChakan Phata
p3770
sa(dp3771
g16
V18.466865
p3772
sg18
I1555
sg19
V73.779361
p3773
sg21
VAhire phata
p3774
sa(dp3775
g16
V18.7432296
p3776
sg18
I1355
sg19
V73.6072583
p3777
sg21
VMohitewadi
p3778
sa(dp3779
g16
V18.727068
p3780
sg18
I1356
sg19
V73.998232
p3781
sg21
VBahulgaon Phata
p3782
sa(dp3783
g16
V18.656031
p3784
sg18
I1358
sg19
V74.0153231
p3785
sg21
VBahulgaon
p3786
sa(dp3787
g16
V18.670741
p3788
sg18
I1359
sg19
V73.781198
p3789
sg21
VSomeshwar Mandir
p3790
sa(dp3791
g16
V18.5550453
p3792
sg18
I1361
sg19
V73.9214504
p3793
sg21
Vkaran Park
p3794
sa(dp3795
g16
V18.554676
p3796
sg18
I1362
sg19
V73.919494
p3797
sg21
VShubham Society 
p3798
sa(dp3799
g16
V18.622388
p3800
sg18
I1364
sg19
V73.8238945
p3801
sg21
VPhulenagar Bhosari
p3802
sa(dp3803
g16
V18.5204303
p3804
sg18
I1365
sg19
V73.8567437
p3805
sg21
VEklavya polytechnic College
p3806
sa(dp3807
g16
V18.5204303
p3808
sg18
I1366
sg19
V73.8567437
p3809
sg21
VMahesh vidyalaya
p3810
sa(dp3811
g16
V18.5204303
p3812
sg18
I1368
sg19
V73.8567437
p3813
sg21
VKhedshivapur Highschool
p3814
sa(dp3815
g16
V18.5204303
p3816
sg18
I1369
sg19
V73.8567437
p3817
sg21
VPinnac Society
p3818
sa(dp3819
g16
V18.565025
p3820
sg18
I1371
sg19
V73.802366
p3821
sg21
VMedi point
p3822
sa(dp3823
g16
V18.6799777
p3824
sg18
I1372
sg19
V73.7867629
p3825
sg21
VRupinagar
p3826
sa(dp3827
g16
V18.6720588
p3828
sg18
I1374
sg19
V73.7827185
p3829
sg21
VAmbedkar vasahat
p3830
sa(dp3831
g16
V18.4268492
p3832
sg18
I1375
sg19
V73.8397009
p3833
sg21
VJambhul Wadi
p3834
sa(dp3835
g16
V18.5204303
p3836
sg18
I1377
sg19
V73.8567437
p3837
sg21
VPimplekar wasti
p3838
sa(dp3839
g16
V18.561495
p3840
sg18
I1378
sg19
V73.785635
p3841
sg21
VDatta Mandir
p3842
sa(dp3843
g16
V18.435711
p3844
sg18
I1380
sg19
V73.845259
p3845
sg21
VTelco Colony
p3846
sa(dp3847
g16
V18.43958
p3848
sg18
I1381
sg19
V73.846932
p3849
sg21
VChakan Oil mill
p3850
sa(dp3851
g16
V18.4418674
p3852
sg18
I1382
sg19
V73.8551385
p3853
sg21
VSantoshnagar
p3854
sa(dp3855
g16
V18.440582
p3856
sg18
I1384
sg19
V73.86607
p3857
sg21
VShivshankar Super market
p3858
sa(dp3859
g16
V18.434502
p3860
sg18
I1385
sg19
V73.868699
p3861
sg21
VKhadi Machine Gujarwadi
p3862
sa(dp3863
g16
V18.426685
p3864
sg18
I1386
sg19
V73.875557
p3865
sg21
VGujarwadi
p3866
sa(dp3867
g16
V18.5204303
p3868
sg18
I1388
sg19
V73.8567437
p3869
sg21
VSaint Janabai hostel
p3870
sa(dp3871
g16
V18.5204303
p3872
sg18
I1389
sg19
V73.8567437
p3873
sg21
VSangamwadi shala
p3874
sa(dp3875
g16
V18.494443
p3876
sg18
I1391
sg19
V73.85429
p3877
sg21
VParvati darshan vasahat
p3878
sa(dp3879
g16
V18.519151
p3880
sg18
I1392
sg19
V73.879542
p3881
sg21
VKhan Road 
p3882
sa(dp3883
g16
V18.539926
p3884
sg18
I1394
sg19
V73.816823
p3885
sg21
VNCL market
p3886
sa(dp3887
g16
V18.4462164
p3888
sg18
I1395
sg19
V73.8256423
p3889
sg21
VBavdhan gaon
p3890
sa(dp3891
g16
V18.5204303
p3892
sg18
I1397
sg19
V73.8567437
p3893
sg21
VMail Dagad Kramank 9
p3894
sa(dp3895
g16
V18.5204303
p3896
sg18
I1398
sg19
V73.8567437
p3897
sg21
V Mail Dagad Kramank 10
p3898
sa(dp3899
g16
V18.5262695
p3900
sg18
I1400
sg19
V73.7882141
p3901
sg21
VPashan Gate
p3902
sa(dp3903
g16
V18.4595744
p3904
sg18
I1401
sg19
V73.7610241
p3905
sg21
VCentral School NDA
p3906
sa(dp3907
g16
V18.5204303
p3908
sg18
I1403
sg19
V73.8567437
p3909
sg21
VAshok Stambha
p3910
sa(dp3911
g16
V18.4595744
p3912
sg18
I1404
sg19
V73.7610241
p3913
sg21
VStadium NDA
p3914
sa(dp3915
g16
V18.5204303
p3916
sg18
I1405
sg19
V73.8567437
p3917
sg21
VServents Quarters
p3918
sa(dp3919
g16
V18.534799
p3920
sg18
I1407
sg19
V73.879601
p3921
sg21
VPatil Chowk
p3922
sa(dp3923
g16
V18.6204038
p3924
sg18
I1409
sg19
V73.784419
p3925
sg21
VMorya Gosavi raj park
p3926
sa(dp3927
g16
V18.5980935
p3928
sg18
I1410
sg19
V73.7995844
p3929
sg21
VRahatani Phata
p3930
sa(dp3931
g16
V18.604815
p3932
sg18
I1412
sg19
V73.786519
p3933
sg21
VNakate wasti
p3934
sa(dp3935
g16
V18.603268
p3936
sg18
I1413
sg19
V73.792478
p3937
sg21
VRamnagar rahatni
p3938
sa(dp3939
g16
V18.596692
p3940
sg18
I1414
sg19
V73.7977928
p3941
sg21
VPimpale Saudagar
p3942
sa(dp3943
g16
V18.6106899
p3944
sg18
I1416
sg19
V73.7990755
p3945
sg21
VPimple saudagar chauk
p3946
sa(dp3947
g16
V18.5204303
p3948
sg18
I1417
sg19
V73.8567437
p3949
sg21
VSwaraj Mazda
p3950
sa(dp3951
g16
V18.598397
p3952
sg18
I1418
sg19
V73.812046
p3953
sg21
VSudarshan nagar
p3954
sa(dp3955
g16
V18.5332247
p3956
sg18
I1420
sg19
V73.8253649
p3957
sg21
VVaiduwasti
p3958
sa(dp3959
g16
V18.4726725
p3960
sg18
I1421
sg19
V73.9784573
p3961
sg21
VPhursungi
p3962
sa(dp3963
g16
V18.5204303
p3964
sg18
I1423
sg19
V73.8567437
p3965
sg21
VHarpale wasti 
p3966
sa(dp3967
g16
V18.476421
p3968
sg18
I1424
sg19
V73.957156
p3969
sg21
VPower house fursungi
p3970
sa(dp3971
g16
V18.4895498
p3972
sg18
I1426
sg19
V73.9535244
p3973
sg21
VADP hadapasar
p3974
sa(dp3975
g16
V18.494128
p3976
sg18
I1427
sg19
V73.946694
p3977
sg21
VGondhalenagar
p3978
sa(dp3979
g16
V18.5204303
p3980
sg18
I1429
sg19
V73.8567437
p3981
sg21
VPolice Line Padamji
p3982
sa(dp3983
g16
V18.5109463
p3984
sg18
I1430
sg19
V73.8747651
p3985
sg21
VPadmji Gate
p3986
sa(dp3987
g16
V18.501818
p3988
sg18
I1431
sg19
V73.890818
p3989
sg21
VMilitary Hospital Wanvadi 
p3990
sa(dp3991
g16
V18.499098
p3992
sg18
I1432
sg19
V73.895513
p3993
sg21
VWanvadi Corner 
p3994
sa(dp3995
g16
V18.5879955
p3996
sg18
I1434
sg19
V73.8156232
p3997
sg21
VNetajinagar 
p3998
sa(dp3999
g16
V18.4821147
p4000
sg18
I1435
sg19
V73.8874799
p4001
sg21
VLullanagar
p4002
sa(dp4003
g16
V18.4702707
p4004
sg18
I1437
sg19
V73.9001742
p4005
sg21
VN I B M Road
p4006
sa(dp4007
g16
V18.5229255
p4008
sg18
I1438
sg19
V73.8677464
p4009
sg21
VKondhva Shala
p4010
sa(dp4011
g16
V18.5204303
p4012
sg18
I1440
sg19
V73.8567437
p4013
sg21
VAzadnagar Charholi
p4014
sa(dp4015
g16
V18.5204303
p4016
sg18
I1441
sg19
V73.8567437
p4017
sg21
VTapkir Bungalow
p4018
sa(dp4019
g16
V18.5204303
p4020
sg18
I1443
sg19
V73.8567437
p4021
sg21
VCharholi Gaon
p4022
sa(dp4023
g16
V18.51799
p4024
sg18
I1444
sg19
V73.856281
p4025
sg21
VVasant talkies
p4026
sa(dp4027
g16
V18.463444
p4028
sg18
I1445
sg19
V73.9212858
p4029
sg21
VKachara Depot Undri 
p4030
sa(dp4031
g16
V18.5065589
p4032
sg18
I1447
sg19
V73.8452169
p4033
sg21
VMayur Mangal Karyalaya
p4034
sa(dp4035
g16
V18.450046
p4036
sg18
I1448
sg19
V73.908893
p4037
sg21
VPisoli Gaon 
p4038
sa(dp4039
g16
V18.452978
p4040
sg18
I1450
sg19
V73.890933
p4041
sg21
VKhadi Machine 
p4042
sa(dp4043
g16
V18.5204303
p4044
sg18
I1451
sg19
V73.8567437
p4045
sg21
VMammadevi Chowk
p4046
sa(dp4047
g16
V18.5095721
p4048
sg18
I1452
sg19
V73.9591266
p4049
sg21
VGhule Wasti 
p4050
sa(dp4051
g16
V18.506696
p4052
sg18
I1454
sg19
V73.795338
p4053
sg21
VKothrud depot
p4054
sa(dp4055
g16
V18.507438
p4056
sg18
I1455
sg19
V73.799911
p4057
sg21
Vkachra depot
p4058
sa(dp4059
g16
V19.200565
p4060
sg18
I1457
sg19
V72.973287
p4061
sg21
VST workshop
p4062
sa(dp4063
g16
V18.50475
p4064
sg18
I1458
sg19
V73.901053
p4065
sg21
VShivarkar gardan
p4066
sa(dp4067
g16
V18.4677915
p4068
sg18
I1460
sg19
V73.8671293
p4069
sg21
VPrasanna Bungalow
p4070
sa(dp4071
g16
V18.4940191
p4072
sg18
I1461
sg19
V73.8257325
p4073
sg21
VGanesh Nagar 
p4074
sa(dp4075
g16
V18.494695
p4076
sg18
I1463
sg19
V73.824595
p4077
sg21
VNatraj Society
p4078
sa(dp4079
g16
V18.5204303
p4080
sg18
I1464
sg19
V73.8567437
p4081
sg21
VLIC Corner
p4082
sa(dp4083
g16
V18.664508
p4084
sg18
I1465
sg19
V73.786573
p4085
sg21
VYamunanagar corner
p4086
sa(dp4087
g16
V18.6126118
p4088
sg18
I1467
sg19
V73.7863952
p4089
sg21
VJyotiba Nagar
p4090
sa(dp4091
g16
V18.7150999
p4092
sg18
I1468
sg19
V73.7360175
p4093
sg21
VTalwade
p4094
sa(dp4095
g16
V18.6497062
p4096
sg18
I1470
sg19
V73.7778363
p4097
sg21
VMhalasakant chauk
p4098
sa(dp4099
g16
V18.5111468
p4100
sg18
I1471
sg19
V73.8371508
p4101
sg21
VSambhaji chauk
p4102
sa(dp4103
g16
V18.5204303
p4104
sg18
I1473
sg19
V73.8567437
p4105
sg21
VLakud Bajar
p4106
sa(dp4107
g16
V18.5039377
p4108
sg18
I1474
sg19
V73.8595928
p4109
sg21
VGul aali
p4110
sa(dp4111
g16
V18.510681
p4112
sg18
I1475
sg19
V73.862069
p4113
sg21
VKasture chowk
p4114
sa(dp4115
g16
V18.5204303
p4116
sg18
I1477
sg19
V73.8567437
p4117
sg21
VShivaji putala Kalubai mandir
p4118
sa(dp4119
g16
V18.622388
p4120
sg18
I1478
sg19
V73.8238945
p4121
sg21
VPhulenagar bhosari
p4122
sa(dp4123
g16
V18.6324164
p4124
sg18
I1480
sg19
V73.7800298
p4125
sg21
VOm sairam complex
p4126
sa(dp4127
g16
V18.4883323
p4128
sg18
I1481
sg19
V73.8131
p4129
sg21
VChaitnya sabhagrah
p4130
sa(dp4131
g16
V18.6394732
p4132
sg18
I1483
sg19
V73.7623111
p4133
sg21
VBijali nagar
p4134
sa(dp4135
g16
V18.600026
p4136
sg18
I1484
sg19
V73.763912
p4137
sg21
VHinjewadi Police Station
p4138
sa(dp4139
g16
V18.5204303
p4140
sg18
I1485
sg19
V73.8567437
p4141
sg21
VInfosys company
p4142
sa(dp4143
g16
V18.507488
p4144
sg18
I1487
sg19
V73.8487136
p4145
sg21
VTulsi Chemical
p4146
sa(dp4147
g16
V18.5204303
p4148
sg18
I1489
sg19
V73.8567437
p4149
sg21
VJayanand Khira
p4150
sa(dp4151
g16
V18.5204303
p4152
sg18
I1490
sg19
V73.8567437
p4153
sg21
VAbhi chemicals
p4154
sa(dp4155
g16
V18.5204303
p4156
sg18
I1491
sg19
V73.8567437
p4157
sg21
VVishalnagar C Ward office
p4158
sa(dp4159
g16
V18.6301835
p4160
sg18
I1492
sg19
V73.8236171
p4161
sg21
VJyoti School
p4162
sa(dp4163
g16
V18.5204303
p4164
sg18
I1494
sg19
V73.8567437
p4165
sg21
VDnyaneshwar June Nivas/Sai Mandir
p4166
sa(dp4167
g16
V18.5204303
p4168
sg18
I1495
sg19
V73.8567437
p4169
sg21
VVishrantwadi corner
p4170
sa(dp4171
g16
V18.5204303
p4172
sg18
I1497
sg19
V73.8567437
p4173
sg21
VGandhi Acid Company
p4174
sa(dp4175
g16
V18.567113
p4176
sg18
I1498
sg19
V73.879489
p4177
sg21
VTingre nagar Shanti nagar
p4178
sa(dp4179
g16
V18.502796
p4180
sg18
I1500
sg19
V73.935062
p4181
sg21
VSmashanbhumi Rasta Hadapsar
p4182
sa(dp4183
g16
V18.505873
p4184
sg18
I1501
sg19
V73.938856
p4185
sg21
VSadhana Vidyalaya
p4186
sa(dp4187
g16
V18.510161
p4188
sg18
I1504
sg19
V73.94321
p4189
sg21
VTupe Mala
p4190
sa(dp4191
g16
V18.512122
p4192
sg18
I1505
sg19
V73.947284
p4193
sg21
VLukad Wasti
p4194
sa(dp4195
g16
V18.557215
p4196
sg18
I1507
sg19
V73.932279
p4197
sg21
VVidi Kamgar Vasahat
p4198
sa(dp4199
g16
V18.5529868
p4200
sg18
I1508
sg19
V73.9323081
p4201
sg21
VTukaramnagar
p4202
sa(dp4203
g16
V18.552747
p4204
sg18
I1510
sg19
V73.878122
p4205
sg21
VAhilya Society
p4206
sa(dp4207
g16
V18.5204303
p4208
sg18
I1511
sg19
V73.8567437
p4209
sg21
VAkshay Sunshri
p4210
sa(dp4211
g16
V18.587177
p4212
sg18
I1512
sg19
V73.8968506
p4213
sg21
VMunjaba Vasti
p4214
sa(dp4215
g16
V18.5332247
p4216
sg18
I1513
sg19
V73.8253649
p4217
sg21
VVaiduvasti
p4218
sa(dp4219
g16
V18.5204303
p4220
sg18
I1515
sg19
V73.8567437
p4221
sg21
VSwaraj mazda
p4222
sa(dp4223
g16
V18.6106899
p4224
sg18
I1516
sg19
V73.7990755
p4225
sg21
VPimpale Saudagar Chowk
p4226
sa(dp4227
g16
V18.5204303
p4228
sg18
I1518
sg19
V73.8567437
p4229
sg21
VRamchandra Mangal Karyalaya
p4230
sa(dp4231
g16
V19.0229364
p4232
sg18
I1519
sg19
V73.0451677
p4233
sg21
VExpress highway phata
p4234
sa(dp4235
g16
V18.6805499
p4236
sg18
I1520
sg19
V73.6874664
p4237
sg21
VShirgaon
p4238
sa(dp4239
g16
V18.543294
p4240
sg18
I1522
sg19
V73.788019
p4241
sg21
VNIV
p4242
sa(dp4243
g16
V18.543537
p4244
sg18
I1523
sg19
V73.784902
p4245
sg21
VSai Chauk
p4246
sa(dp4247
g16
V18.5245052
p4248
sg18
I1525
sg19
V73.8414833
p4249
sg21
VPaduka mandir
p4250
sa(dp4251
g16
V18.5204303
p4252
sg18
I1526
sg19
V73.8567437
p4253
sg21
VCOD Corner
p4254
sa(dp4255
g16
V18.5204303
p4256
sg18
I1528
sg19
V73.8567437
p4257
sg21
VRamanand Mangal Karyalaya
p4258
sa(dp4259
g16
V18.591836
p4260
sg18
I1530
sg19
V73.756851
p4261
sg21
VHinjewadi Jakatnaka
p4262
sa(dp4263
g16
V18.5204303
p4264
sg18
I1531
sg19
V73.8567437
p4265
sg21
VShivratn Mangal Karyalaya
p4266
sa(dp4267
g16
V18.4661359
p4268
sg18
I1532
sg19
V73.8279381
p4269
sg21
VJadhav nagar
p4270
sa(dp4271
g16
V18.468494
p4272
sg18
I1533
sg19
V73.831616
p4273
sg21
VVenutai College
p4274
sa(dp4275
g16
V18.6020503
p4276
sg18
I1535
sg19
V73.9328098
p4277
sg21
VDefence Colony
p4278
sa(dp4279
g16
V18.502158
p4280
sg18
I1536
sg19
V73.805332
p4281
sg21
VAnkur Bungalow
p4282
sa(dp4283
g16
V18.5036536
p4284
sg18
I1538
sg19
V73.8077652
p4285
sg21
VSutar Dawakhana
p4286
sa(dp4287
g16
V18.454558
p4288
sg18
I1539
sg19
V73.766925
p4289
sg21
VNDA Gate No 10
p4290
sa(dp4291
g16
V18.4372491
p4292
sg18
I1541
sg19
V73.7505438
p4293
sg21
VPickock Bay
p4294
sa(dp4295
g16
V18.5204303
p4296
sg18
I1542
sg19
V73.8567437
p4297
sg21
VDonger Matha
p4298
sa(dp4299
g16
V18.433698
p4300
sg18
I1543
sg19
V73.747358
p4301
sg21
VDhumal Tali
p4302
sa(dp4303
g16
V18.5204303
p4304
sg18
I1545
sg19
V73.8567437
p4305
sg21
VKudje Stand
p4306
sa(dp4307
g16
V18.417787
p4308
sg18
I1546
sg19
V73.735547
p4309
sg21
VAgalambe Phata
p4310
sa(dp4311
g16
V18.5204303
p4312
sg18
I1548
sg19
V73.8567437
p4313
sg21
VMandvi Khurd
p4314
sa(dp4315
g16
V18.5204303
p4316
sg18
I1549
sg19
V73.8567437
p4317
sg21
VMandavi Budruk
p4318
sa(dp4319
g16
V18.403979
p4320
sg18
I1551
sg19
V73.681827
p4321
sg21
VSangrun Phata
p4322
sa(dp4323
g16
V18.400575
p4324
sg18
I1552
sg19
V73.679059
p4325
sg21
VSangrun
p4326
sa(dp4327
g16
V18.5551525
p4328
sg18
I1553
sg19
V73.8992392
p4329
sg21
VShastrinagar 
p4330
sa(dp4331
g16
V18.5825868
p4332
sg18
I1554
sg19
V73.7683784
p4333
sg21
VBalewadi
p4334
sa(dp4335
g16
V18.455339
p4336
sg18
I1556
sg19
V73.732116
p4337
sg21
VAhire gaon
p4338
sa(dp4339
g16
V18.5204303
p4340
sg18
I1557
sg19
V73.8567437
p4341
sg21
VHarijan wasti
p4342
sa(dp4343
g16
V18.5204303
p4344
sg18
I1559
sg19
V73.8567437
p4345
sg21
VGolewadi
p4346
sa(dp4347
g16
V18.5204303
p4348
sg18
I1560
sg19
V73.8567437
p4349
sg21
VMandhare wasti pole phata
p4350
sa(dp4351
g16
V18.5204303
p4352
sg18
I1562
sg19
V73.8567437
p4353
sg21
VSinhgad Payth Aatekar wasti
p4354
sa(dp4355
g16
V18.52964
p4356
sg18
I1563
sg19
V73.907933
p4357
sg21
VArmy College
p4358
sa(dp4359
g16
V18.531281
p4360
sg18
I1565
sg19
V73.914076
p4361
sg21
VFarshi karkhana
p4362
sa(dp4363
g16
V18.533485
p4364
sg18
I1566
sg19
V73.920663
p4365
sg21
VKachare Wasti
p4366
sa(dp4367
g16
V18.533802
p4368
sg18
I1568
sg19
V73.929892
p4369
sg21
VMundhava goan corner
p4370
sa(dp4371
g16
V18.532675
p4372
sg18
I1569
sg19
V73.932838
p4373
sg21
VMundhava Goan
p4374
sa(dp4375
g16
V18.5094678
p4376
sg18
I1570
sg19
V73.930765
p4377
sg21
VShinde Mundhava
p4378
sa(dp4379
g16
V18.5204303
p4380
sg18
I1572
sg19
V73.8567437
p4381
sg21
VKeshavnagar
p4382
sa(dp4383
g16
V18.466393
p4384
sg18
I1574
sg19
V73.9199998
p4385
sg21
VSamartha Vidyalaya Indrayani Nagar
p4386
sa(dp4387
g16
V18.667683
p4388
sg18
I1575
sg19
V73.949866
p4389
sg21
VMarkal Gaon
p4390
sa(dp4391
g16
V18.670046
p4392
sg18
I1576
sg19
V73.984985
p4393
sg21
VIndrayani Nadi Pool
p4394
sa(dp4395
g16
V18.6694438
p4396
sg18
I1577
sg19
V73.9954909
p4397
sg21
VTulapur
p4398
sa(dp4399
g16
V18.656031
p4400
sg18
I1579
sg19
V74.0153231
p4401
sg21
VPhulgaon
p4402
sa(dp4403
g16
V18.5204303
p4404
sg18
I1581
sg19
V73.8567437
p4405
sg21
VSakore Mala
p4406
sa(dp4407
g16
V18.5204303
p4408
sg18
I1582
sg19
V73.8567437
p4409
sg21
VRaysoni Farm
p4410
sa(dp4411
g16
V18.6718661
p4412
sg18
I1584
sg19
V73.9653715
p4413
sg21
VPower House Markal
p4414
sa(dp4415
g16
V18.5894857
p4416
sg18
I1585
sg19
V73.895824
p4417
sg21
VKate Wasti
p4418
sa(dp4419
g16
V18.4777094
p4420
sg18
I1586
sg19
V73.8971106
p4421
sg21
VRajas Soc.
p4422
sa(dp4423
g16
V18.5204303
p4424
sg18
I1588
sg19
V73.8567437
p4425
sg21
VNivedita Jhula Ghar Kirkat wadi
p4426
sa(dp4427
g16
V18.5204303
p4428
sg18
I1589
sg19
V73.8567437
p4429
sg21
VMalwadi Kirkat wadi
p4430
sa(dp4431
g16
V18.5204303
p4432
sg18
I1591
sg19
V73.8567437
p4433
sg21
VMal Hagwane wasti
p4434
sa(dp4435
g16
V18.5204303
p4436
sg18
I1592
sg19
V73.8567437
p4437
sg21
VNandoshi Limbache Zad
p4438
sa(dp4439
g16
V18.5204303
p4440
sg18
I1594
sg19
V73.8567437
p4441
sg21
VJivan Shikshan Mandir Wanjal Wadi
p4442
sa(dp4443
g16
V18.414341
p4444
sg18
I1595
sg19
V73.803102
p4445
sg21
VSanaswadi Nandoshi
p4446
sa(dp4447
g16
V18.6142312
p4448
sg18
I1597
sg19
V73.7756244
p4449
sg21
VLink Road
p4450
sa(dp4451
g16
V18.622606
p4452
sg18
I1598
sg19
V73.801505
p4453
sg21
VShagun chowk
p4454
sa(dp4455
g16
V18.5083225
p4456
sg18
I1600
sg19
V73.8040428
p4457
sg21
VParamhans nagar
p4458
sa(dp4459
g16
V18.535706
p4460
sg18
I1601
sg19
V73.8290409
p4461
sg21
VBahiratwadi 
p4462
sa(dp4463
g16
V18.4549714
p4464
sg18
I1603
sg19
V73.9565551
p4465
sg21
VUruli Devachi
p4466
sa(dp4467
g16
V18.52235
p4468
sg18
I1604
sg19
V73.865135
p4469
sg21
VSadanand Nagar
p4470
sa(dp4471
g16
V18.5204303
p4472
sg18
I1606
sg19
V73.8567437
p4473
sg21
VSarpodyan Telco Road
p4474
sa(dp4475
g16
V18.5204303
p4476
sg18
I1607
sg19
V73.8567437
p4477
sg21
VHDFC corner
p4478
sa(dp4479
g16
V18.531082
p4480
sg18
I1608
sg19
V73.8669505
p4481
sg21
VM23
p4482
sa(dp4483
g16
V18.561671
p4484
sg18
I1610
sg19
V73.89676
p4485
sg21
VMaharashtra Housing Yerwada
p4486
sa(dp4487
g16
V18.421127
p4488
sg18
I1611
sg19
V73.730057
p4489
sg21
VAmrai
p4490
sa(dp4491
g16
V18.5204303
p4492
sg18
I1612
sg19
V73.8567437
p4493
sg21
VPoultry Farm Aglambe
p4494
sa(dp4495
g16
V18.617356
p4496
sg18
I1614
sg19
V73.767218
p4497
sg21
VTheurgaon Phata
p4498
sa(dp4499
g16
V18.457392
p4500
sg18
I1615
sg19
V73.804411
p4501
sg21
VGreen Ekers
p4502
sa(dp4503
g16
V18.5204303
p4504
sg18
I1616
sg19
V73.8567437
p4505
sg21
VPanale farm
p4506
sa(dp4507
g16
V19.4062635
p4508
sg18
I1618
sg19
V73.8496252
p4509
sg21
VKunjir vihir
p4510
sa(dp4511
g16
V18.5091472
p4512
sg18
I1619
sg19
V73.9459015
p4513
sg21
VGosavi wasti
p4514
sa(dp4515
g16
V18.522877
p4516
sg18
I1621
sg19
V74.046326
p4517
sg21
VTheur gaon
p4518
sa(dp4519
g16
V18.525271
p4520
sg18
I1622
sg19
V74.043897
p4521
sg21
VTheur factory
p4522
sa(dp4523
g16
V18.5204303
p4524
sg18
I1624
sg19
V73.8567437
p4525
sg21
VMalwadi Kunjir 
p4526
sa(dp4527
g16
V18.562279
p4528
sg18
I1625
sg19
V73.938945
p4529
sg21
VKarade Wasti 
p4530
sa(dp4531
g16
V18.6667
p4532
sg18
I1627
sg19
V73.9
p4533
sg21
VRailway gate Mhatobachi alandi
p4534
sa(dp4535
g16
V18.605501
p4536
sg18
I1628
sg19
V73.823098
p4537
sg21
VJavalkar Hospital
p4538
sa(dp4539
g16
V18.452382
p4540
sg18
I1629
sg19
V74.0690625
p4541
sg21
VMhatobachi Alandi
p4542
sa(dp4543
g16
V18.487942
p4544
sg18
I1631
sg19
V73.9422277
p4545
sg21
VTukai nagar
p4546
sa(dp4547
g16
V18.5204303
p4548
sg18
I1632
sg19
V73.8567437
p4549
sg21
VBhansali complex
p4550
sa(dp4551
g16
V18.5204303
p4552
sg18
I1634
sg19
V73.8567437
p4553
sg21
VChakankar mala
p4554
sa(dp4555
g16
V18.5316136
p4556
sg18
I1636
sg19
V73.8490277
p4557
sg21
VBharat English school
p4558
sa(dp4559
g16
V18.5204303
p4560
sg18
I1637
sg19
V73.8567437
p4561
sg21
VMojhe Vidyalay
p4562
sa(dp4563
g16
V18.632471
p4564
sg18
I1638
sg19
V73.81993
p4565
sg21
VMaster Bakery
p4566
sa(dp4567
g16
V18.6733338
p4568
sg18
I1640
sg19
V74.6017946
p4569
sg21
VKakde Vasti
p4570
sa(dp4571
g16
V18.5204303
p4572
sg18
I1641
sg19
V73.8567437
p4573
sg21
VOswal Estate
p4574
sa(dp4575
g16
V18.523328
p4576
sg18
I1643
sg19
V73.869116
p4577
sg21
VEmployment Office
p4578
sa(dp4579
g16
V18.5566876
p4580
sg18
I1644
sg19
V73.9168766
p4581
sg21
VKrushnanagar
p4582
sa(dp4583
g16
V18.5204303
p4584
sg18
I1646
sg19
V73.8567437
p4585
sg21
VKukkut palan kendra
p4586
sa(dp4587
g16
V18.5204303
p4588
sg18
I1647
sg19
V73.8567437
p4589
sg21
VRaysoni farm
p4590
sa(dp4591
g16
V18.5204303
p4592
sg18
I1648
sg19
V73.8567437
p4593
sg21
VSakore mala
p4594
sa(dp4595
g16
V18.4828574
p4596
sg18
I1650
sg19
V73.9334103
p4597
sg21
VGanga Village
p4598
sa(dp4599
g16
V18.4768416
p4600
sg18
I1651
sg19
V73.9304711
p4601
sg21
VSatav Nagar
p4602
sa(dp4603
g16
V18.5204303
p4604
sg18
I1
sg19
V73.8567437
p4605
sg21
VBajaj Mhalunge
p4606
sa(dp4607
g16
V18.5204303
p4608
sg18
I2
sg19
V73.8567437
p4609
sg21
VSuvarna Fabricators
p4610
sa(dp4611
g16
V18.5204303
p4612
sg18
I5
sg19
V73.8567437
p4613
sg21
VLueMax
p4614
sa(dp4615
g16
V18.5204303
p4616
sg18
I8
sg19
V73.8567437
p4617
sg21
VPancharatna Complex
p4618
sa(dp4619
g16
V18.5204303
p4620
sg18
I11
sg19
V73.8567437
p4621
sg21
VPegra gran company
p4622
sa(dp4623
g16
V18.715294
p4624
sg18
I15
sg19
V73.848259
p4625
sg21
VKuruli Gaon
p4626
sa(dp4627
g16
V18.5204303
p4628
sg18
I17
sg19
V73.8567437
p4629
sg21
VMoshi phata chimboli phata
p4630
sa(dp4631
g16
V18.665352
p4632
sg18
I22
sg19
V73.84863
p4633
sg21
VBorate wasti
p4634
sa(dp4635
g16
V18.6385292
p4636
sg18
I25
sg19
V73.8477874
p4637
sg21
VWakhar Mahamandal Bhosari
p4638
sa(dp4639
g16
V18.6247121
p4640
sg18
I28
sg19
V73.8483387
p4641
sg21
VBhosari gaon
p4642
sa(dp4643
g16
V18.6203626
p4644
sg18
I31
sg19
V73.8506861
p4645
sg21
VPhilips
p4646
sa(dp4647
g16
V18.5980935
p4648
sg18
I34
sg19
V73.7995844
p4649
sg21
VNashik phata
p4650
sa(dp4651
g16
V18.5204303
p4652
sg18
I37
sg19
V73.8567437
p4653
sg21
VAlfa Laval Atlas Company
p4654
sa(dp4655
g16
V18.571469
p4656
sg18
I41
sg19
V73.838028
p4657
sg21
VBopodi Jakat Naka
p4658
sa(dp4659
g16
V18.5631806
p4660
sg18
I44
sg19
V73.8406198
p4661
sg21
VKhadaki railway station
p4662
sa(dp4663
g16
V18.551905
p4664
sg18
I48
sg19
V73.849493
p4665
sg21
VRaja bangalow
p4666
sa(dp4667
g16
V18.546806
p4668
sg18
I50
sg19
V73.851656
p4669
sg21
VPoultry Farm Old Mumbai Pune Road
p4670
sa(dp4671
g16
V18.528357
p4672
sg18
I55
sg19
V73.852084
p4673
sg21
VEngineering college hostel
p4674
sa(dp4675
g16
V18.523517
p4676
sg18
I59
sg19
V73.87549
p4677
sg21
VGPO
p4678
sa(dp4679
g16
V18.527256
p4680
sg18
I62
sg19
V73.862344
p4681
sg21
VJuna Bajar 
p4682
sa(dp4683
g16
V18.5308225
p4684
sg18
I65
sg19
V73.8474647
p4685
sg21
Vshimala office shivajinagar
p4686
sa(dp4687
g16
V18.537936
p4688
sg18
I69
sg19
V73.834618
p4689
sg21
VE square
p4690
sa(dp4691
g16
V18.560308
p4692
sg18
I72
sg19
V73.815169
p4693
sg21
VBoys batalian
p4694
sa(dp4695
g16
V18.5204303
p4696
sg18
I74
sg19
V73.8567437
p4697
sg21
VSindh colony gate 2
p4698
sa(dp4699
g16
V18.572723
p4700
sg18
I78
sg19
V73.807171
p4701
sg21
VSangvi phata
p4702
sa(dp4703
g16
V18.484071
p4704
sg18
I81
sg19
V73.859721
p4705
sg21
VESI Hospital
p4706
sa(dp4707
g16
V18.587968
p4708
sg18
I84
sg19
V73.789228
p4709
sg21
VWakad phata 
p4710
sa(dp4711
g16
V18.603829
p4712
sg18
I87
sg19
V73.776539
p4713
sg21
VKalewadi phata
p4714
sa(dp4715
g16
V18.6151
p4716
sg18
I90
sg19
V73.765693
p4717
sg21
VDange chowk
p4718
sa(dp4719
g16
V18.508215
p4720
sg18
I93
sg19
V73.853702
p4721
sg21
VBhikardas maruti madnir
p4722
sa(dp4723
g16
V18.6569183
p4724
sg18
I96
sg19
V73.7679965
p4725
sg21
VDakshinabhimukh Maruti mandir
p4726
sa(dp4727
g16
V18.5332548
p4728
sg18
I100
sg19
V73.8463172
p4729
sg21
VN T wadi
p4730
sa(dp4731
g16
V18.5183409
p4732
sg18
I102
sg19
V73.840436
p4733
sg21
VDeccan Gymkhana
p4734
sa(dp4735
g16
V18.510551
p4736
sg18
I105
sg19
V73.834878
p4737
sg21
VPetrol Pump Karve Road
p4738
sa(dp4739
g16
V18.5204303
p4740
sg18
I108
sg19
V73.8567437
p4741
sg21
VPaud Phata Dashabhuja Ganpati
p4742
sa(dp4743
g16
V18.4956151
p4744
sg18
I112
sg19
V73.8110279
p4745
sg21
VDahanukar colony
p4746
sa(dp4747
g16
V18.487678
p4748
sg18
I116
sg19
V73.802842
p4749
sg21
VIshanya Nagari
p4750
sa(dp4751
g16
V18.509646
p4752
sg18
I119
sg19
V73.847399
p4753
sg21
VMaharashtra mandal
p4754
sa(dp4755
g16
V18.5204303
p4756
sg18
I123
sg19
V73.8567437
p4757
sg21
VDnyaneshwar Paduka chowk
p4758
sa(dp4759
g16
V18.539814
p4760
sg18
I126
sg19
V73.850922
p4761
sg21
VBajaj showroom wakadewadi
p4762
sa(dp4763
g16
V18.5204303
p4764
sg18
I130
sg19
V73.8567437
p4765
sg21
VSapras post
p4766
sa(dp4767
g16
V18.5204303
p4768
sg18
I1654
sg19
V73.8567437
p4769
sg21
VGavane Nagar
p4770
sa(dp4771
g16
V18.4499531
p4772
sg18
I1655
sg19
V73.9234903
p4773
sg21
VHandewadi gaon
p4774
sa(dp4775
g16
V18.438516
p4776
sg18
I1657
sg19
V73.9411256
p4777
sg21
VHolkarwadi
p4778
sa(dp4779
g16
V18.620593
p4780
sg18
I1658
sg19
V73.76071
p4781
sg21
VDairy farm
p4782
sa(dp4783
g16
V18.5204303
p4784
sg18
I1660
sg19
V73.8567437
p4785
sg21
VPunawale corner
p4786
sa(dp4787
g16
V18.5204303
p4788
sg18
I1661
sg19
V73.8567437
p4789
sg21
VPabal Phata
p4790
sa(dp4791
g16
V18.5731929
p4792
sg18
I1663
sg19
V74.0241367
p4793
sg21
VS T Stand Kesnand
p4794
sa(dp4795
g16
V18.5204303
p4796
sg18
I1665
sg19
V73.8567437
p4797
sg21
VHighpeek Company
p4798
sa(dp4799
g16
V18.5731929
p4800
sg18
I1666
sg19
V74.0241367
p4801
sg21
VKesnand
p4802
sa(dp4803
g16
V18.5204303
p4804
sg18
I1667
sg19
V73.8567437
p4805
sg21
VDhore Vasti
p4806
sa(dp4807
g16
V18.5204303
p4808
sg18
I1669
sg19
V73.8567437
p4809
sg21
VShivneri Poultry Farm
p4810
sa(dp4811
g16
V18.5204303
p4812
sg18
I1670
sg19
V73.8567437
p4813
sg21
VDadegaon Phata
p4814
sa(dp4815
g16
V18.6216954
p4816
sg18
I1672
sg19
V73.9602287
p4817
sg21
VShinde wasti
p4818
sa(dp4819
g16
V18.5204303
p4820
sg18
I1673
sg19
V73.8567437
p4821
sg21
VKRB Workshop
p4822
sa(dp4823
g16
V18.527644
p4824
sg18
I1674
sg19
V73.949798
p4825
sg21
VLonkar wasti
p4826
sa(dp4827
g16
V18.5204303
p4828
sg18
I1676
sg19
V73.8567437
p4829
sg21
VGhavate nagar
p4830
sa(dp4831
g16
V18.5204303
p4832
sg18
I1677
sg19
V73.8567437
p4833
sg21
VVSI company
p4834
sa(dp4835
g16
V18.4694197
p4836
sg18
I1679
sg19
V73.8553222
p4837
sg21
VChavan Nagar Sambhajinagar
p4838
sa(dp4839
g16
V18.4855354
p4840
sg18
I1680
sg19
V73.8523804
p4841
sg21
VAranyeshwar mandir
p4842
sa(dp4843
g16
V18.4900896
p4844
sg18
I1682
sg19
V73.8531232
p4845
sg21
VShivdarshan Vasahat
p4846
sa(dp4847
g16
V18.4471901
p4848
sg18
I1683
sg19
V73.874985
p4849
sg21
VGokul Nagar Katraj
p4850
sa(dp4851
g16
V18.457917
p4852
sg18
I1684
sg19
V73.877944
p4853
sg21
VGajanan Nagar
p4854
sa(dp4855
g16
V18.659358
p4856
sg18
I1686
sg19
V73.764899
p4857
sg21
VMukbadhir Shala
p4858
sa(dp4859
g16
V18.5877162
p4860
sg18
I1687
sg19
V73.8885824
p4861
sg21
VGokul nagar
p4862
sa(dp4863
g16
V18.4549502
p4864
sg18
I1689
sg19
V73.8255487
p4865
sg21
VManaji nagar
p4866
sa(dp4867
g16
V18.5204303
p4868
sg18
I1690
sg19
V73.8567437
p4869
sg21
VJK Industries
p4870
sa(dp4871
g16
V18.450954
p4872
sg18
I1691
sg19
V73.837548
p4873
sg21
VNarhe Ambegaon
p4874
sa(dp4875
g16
V18.5308225
p4876
sg18
I1692
sg19
V73.8474647
p4877
sg21
VIndira Institute
p4878
sa(dp4879
g16
V18.5967267
p4880
sg18
I1694
sg19
V73.7939677
p4881
sg21
VTathawade Phata
p4882
sa(dp4883
g16
V18.5204303
p4884
sg18
I1696
sg19
V73.8567437
p4885
sg21
VPawana pul Rawet
p4886
sa(dp4887
g16
V18.5204303
p4888
sg18
I1697
sg19
V73.8567437
p4889
sg21
VJadhavwadi phata
p4890
sa(dp4891
g16
V18.5204303
p4892
sg18
I1698
sg19
V73.8567437
p4893
sg21
VShamal Rose Nursery
p4894
sa(dp4895
g16
V18.5204303
p4896
sg18
I1700
sg19
V73.8567437
p4897
sg21
VUrse Phata
p4898
sa(dp4899
g16
V18.6912834
p4900
sg18
I1701
sg19
V73.6462625
p4901
sg21
VBebadohal
p4902
sa(dp4903
g16
V18.5542406
p4904
sg18
I1703
sg19
V73.935911
p4905
sg21
VDhavde Vasti
p4906
sa(dp4907
g16
V18.5204303
p4908
sg18
I1704
sg19
V73.8567437
p4909
sg21
VAtlas Company
p4910
sa(dp4911
g16
V18.5204303
p4912
sg18
I1706
sg19
V73.8567437
p4913
sg21
VSpicer college press
p4914
sa(dp4915
g16
V18.5660186
p4916
sg18
I1707
sg19
V73.8257325
p4917
sg21
VBotanical Garden
p4918
sa(dp4919
g16
V18.562315
p4920
sg18
I1709
sg19
V73.833407
p4921
sg21
VLIC Colony Khadaki
p4922
sa(dp4923
g16
V18.560732
p4924
sg18
I1710
sg19
V73.841308
p4925
sg21
VKhadaki Station corner
p4926
sa(dp4927
g16
V18.6447989
p4928
sg18
I1712
sg19
V73.7737101
p4929
sg21
VShrama Safalya
p4930
sa(dp4931
g16
V18.5541598
p4932
sg18
I1713
sg19
V73.9302206
p4933
sg21
VAnandpark Kharadi
p4934
sa(dp4935
g16
V18.5204303
p4936
sg18
I1715
sg19
V73.8567437
p4937
sg21
VRanware wasti
p4938
sa(dp4939
g16
V18.553406
p4940
sg18
I1716
sg19
V73.75384
p4941
sg21
VRavinagar Tapkir wasti
p4942
sa(dp4943
g16
V18.5436733
p4944
sg18
I1717
sg19
V73.7844514
p4945
sg21
VSoos gaon
p4946
sa(dp4947
g16
V18.5204303
p4948
sg18
I1719
sg19
V73.8567437
p4949
sg21
VSymbiosis college phata Soos
p4950
sa(dp4951
g16
V18.5204303
p4952
sg18
I1720
sg19
V73.8567437
p4953
sg21
VSanjay Nilgiri Garden Shinde Wast
p4954
sa(dp4955
g16
V18.555866
p4956
sg18
I1721
sg19
V73.72032
p4957
sg21
VDhamale wasti Soos road
p4958
sa(dp4959
g16
V18.5204303
p4960
sg18
I1723
sg19
V73.8567437
p4961
sg21
VGaikwad wasti Nandegaon
p4962
sa(dp4963
g16
V18.538569
p4964
sg18
I1725
sg19
V73.709808
p4965
sg21
VGawade wasti
p4966
sa(dp4967
g16
V18.497766
p4968
sg18
I1726
sg19
V73.941607
p4969
sg21
VSatav wasti
p4970
sa(dp4971
g16
V18.528251
p4972
sg18
I1727
sg19
V73.703528
p4973
sg21
VLawale wasti
p4974
sa(dp4975
g16
V18.5204303
p4976
sg18
I1729
sg19
V73.8567437
p4977
sg21
VKasturba School Wadia
p4978
sa(dp4979
g16
V18.5204303
p4980
sg18
I1730
sg19
V73.8567437
p4981
sg21
VKalptaru Society
p4982
sa(dp4983
g16
V18.5204303
p4984
sg18
I1732
sg19
V73.8567437
p4985
sg21
VGhorpadi Phata
p4986
sa(dp4987
g16
V18.5204303
p4988
sg18
I1734
sg19
V73.8567437
p4989
sg21
VDhole Patil Farm
p4990
sa(dp4991
g16
V18.5402123
p4992
sg18
I1735
sg19
V73.8352899
p4993
sg21
VYashwant Nagar
p4994
sa(dp4995
g16
V18.5414013
p4996
sg18
I1736
sg19
V73.8396802
p4997
sg21
VAshoknagar
p4998
sa(dp4999
g16
V18.5204303
p5000
sg18
I1738
sg19
V73.8567437
p5001
sg21
VRangehill Circle 2
p5002
sa(dp5003
g16
V18.544901
p5004
sg18
I1739
sg19
V73.839313
p5005
sg21
VRangehills H Type Quarters
p5006
sa(dp5007
g16
V18.501818
p5008
sg18
I1740
sg19
V73.890818
p5009
sg21
VMilitary Hospital
p5010
sa(dp5011
g16
V18.3917
p5012
sg18
I1742
sg19
V73.702067
p5013
sg21
VMalkhed
p5014
sa(dp5015
g16
V18.389412
p5016
sg18
I1743
sg19
V73.700424
p5017
sg21
VWardade phata
p5018
sa(dp5019
g16
V18.385607
p5020
sg18
I1744
sg19
V73.698978
p5021
sg21
VWardade
p5022
sa(dp5023
g16
V18.5587288
p5024
sg18
I134
sg19
V73.8782926
p5025
sg21
VPhulenagar
p5026
sa(dp5027
g16
V18.5204303
p5028
sg18
I136
sg19
V73.8567437
p5029
sg21
VMental Hospital Corner
p5030
sa(dp5031
g16
V18.575289
p5032
sg18
I140
sg19
V73.814975
p5033
sg21
VPanyachi Taki
p5034
sa(dp5035
g16
V18.5306416
p5036
sg18
I143
sg19
V73.8397948
p5037
sg21
VSai Corner
p5038
sa(dp5039
g16
V18.481564
p5040
sg18
I146
sg19
V73.857141
p5041
sg21
VKatraj bus stand
p5042
sa(dp5043
g16
V18.4979807
p5044
sg18
I149
sg19
V73.8051458
p5045
sg21
VChaitanya nagar
p5046
sa(dp5047
g16
V18.481564
p5048
sg18
I153
sg19
V73.857141
p5049
sg21
VNatu bag
p5050
sa(dp5051
g16
V18.4925316
p5052
sg18
I154
sg19
V73.8574469
p5053
sg21
VAranyeshwar Corner
p5054
sa(dp5055
g16
V18.532448
p5056
sg18
I158
sg19
V73.849456
p5057
sg21
VShivajinagar Station
p5058
sa(dp5059
g16
V18.5204303
p5060
sg18
I161
sg19
V73.8567437
p5061
sg21
VGaimukh Ambegaon Phata
p5062
sa(dp5063
g16
V18.45405
p5064
sg18
I164
sg19
V73.851345
p5065
sg21
VChandrabhaga Restaurant
p5066
sa(dp5067
g16
V18.52159
p5068
sg18
I168
sg19
V73.855775
p5069
sg21
VSurya hospital
p5070
sa(dp5071
g16
V18.602887
p5072
sg18
I171
sg19
V73.749347
p5073
sg21
VBhumkar Complex
p5074
sa(dp5075
g16
V18.5204303
p5076
sg18
I174
sg19
V73.8567437
p5077
sg21
VRadhika Soc
p5078
sa(dp5079
g16
V18.5204303
p5080
sg18
I178
sg19
V73.8567437
p5081
sg21
VGar mala
p5082
sa(dp5083
g16
V18.4599788
p5084
sg18
I180
sg19
V73.8119559
p5085
sg21
VSanas Vidyalaya
p5086
sa(dp5087
g16
V18.5204303
p5088
sg18
I184
sg19
V73.8567437
p5089
sg21
VJadhavwadi Andh shala
p5090
sa(dp5091
g16
V18.4422637
p5092
sg18
I187
sg19
V73.7852922
p5093
sg21
VKolhewadi
p5094
sa(dp5095
g16
V18.5204303
p5096
sg18
I189
sg19
V73.8567437
p5097
sg21
VKhadakwasla Dharan
p5098
sa(dp5099
g16
V18.5204303
p5100
sg18
I193
sg19
V73.8567437
p5101
sg21
VShivaji Putala Kalubai Mandir
p5102
sa(dp5103
g16
V18.500738
p5104
sg18
I197
sg19
V73.844967
p5105
sg21
VPan mala Sinhgad Road
p5106
sa(dp5107
g16
V18.5204303
p5108
sg18
I201
sg19
V73.8567437
p5109
sg21
VVitthalwadi jakat naka
p5110
sa(dp5111
g16
V18.4790788
p5112
sg18
I205
sg19
V73.8255677
p5113
sg21
VAnand nagar singhgad rd
p5114
sa(dp5115
g16
V18.466096
p5116
sg18
I208
sg19
V73.816713
p5117
sg21
VWadgaon phata
p5118
sa(dp5119
g16
V18.5204303
p5120
sg18
I211
sg19
V73.8567437
p5121
sg21
VChildrens School
p5122
sa(dp5123
g16
V18.5204303
p5124
sg18
I215
sg19
V73.8567437
p5125
sg21
VGorhe bu. jeevan shikshan mandir
p5126
sa(dp5127
g16
V18.406694
p5128
sg18
I218
sg19
V73.756346
p5129
sg21
VVenkatesh poultry farm
p5130
sa(dp5131
g16
V18.519784
p5132
sg18
I222
sg19
V73.856201
p5133
sg21
VKasaba Police Chowky
p5134
sa(dp5135
g16
V18.5204389
p5136
sg18
I225
sg19
V73.864941
p5137
sg21
VRastewada
p5138
sa(dp5139
g16
V18.525701
p5140
sg18
I228
sg19
V73.87206
p5141
sg21
VSasoon hospital
p5142
sa(dp5143
g16
V18.5334387
p5144
sg18
I231
sg19
V73.880002
p5145
sg21
VWadia college
p5146
sa(dp5147
g16
V18.53298
p5148
sg18
I234
sg19
V73.886073
p5149
sg21
VBudhrani Hospital
p5150
sa(dp5151
g16
V18.5204303
p5152
sg18
I237
sg19
V73.8567437
p5153
sg21
VKawdewasti
p5154
sa(dp5155
g16
V18.541962
p5156
sg18
I240
sg19
V73.829295
p5157
sg21
VPune University Gate
p5158
sa(dp5159
g16
V18.550499
p5160
sg18
I244
sg19
V73.80954
p5161
sg21
VBaner phata
p5162
sa(dp5163
g16
V18.5568162
p5164
sg18
I246
sg19
V73.806984
p5165
sg21
VAnand park sindhi colony
p5166
sa(dp5167
g16
V18.575605
p5168
sg18
I251
sg19
V73.810364
p5169
sg21
VBa ra gholap
p5170
sa(dp5171
g16
V18.5204303
p5172
sg18
I254
sg19
V73.8567437
p5173
sg21
Vshitole nagar corner
p5174
sa(dp5175
g16
V18.57575
p5176
sg18
I257
sg19
V73.826094
p5177
sg21
VVasantdada Putala
p5178
sa(dp5179
g16
V18.5204303
p5180
sg18
I260
sg19
V73.8567437
p5181
sg21
VMohammadwadi jakat naka
p5182
sa(dp5183
g16
V18.5204303
p5184
sg18
I263
sg19
V73.8567437
p5185
sg21
VRailway Crossing Mohammadwadi
p5186
sa(dp5187
g16
V18.5204303
p5188
sg18
I268
sg19
V73.8567437
p5189
sg21
VMahamdwadi Gaon
p5190
sa(dp5191
g16
V18.5204303
p5192
sg18
I271
sg19
V73.8567437
p5193
sg21
VKhole wasti 
p5194
sa(dp5195
g16
V18.514469
p5196
sg18
I274
sg19
V73.852255
p5197
sg21
VKunte Chauk
p5198
sa(dp5199
g16
V18.516111
p5200
sg18
I278
sg19
V73.829066
p5201
sg21
VLaw college
p5202
sa(dp5203
g16
V18.5204303
p5204
sg18
I281
sg19
V73.8567437
p5205
sg21
VSheti mahamandal
p5206
sa(dp5207
g16
V18.5204303
p5208
sg18
I283
sg19
V73.8567437
p5209
sg21
VShivaji housing board bus stop
p5210
sa(dp5211
g16
V18.55173
p5212
sg18
I288
sg19
V73.82815
p5213
sg21
VLadies Hostel Pune University
p5214
sa(dp5215
g16
V18.4507053
p5216
sg18
I291
sg19
V73.8580397
p5217
sg21
VDattanagar Highway
p5218
sa(dp5219
g16
V18.5204303
p5220
sg18
I295
sg19
V73.8567437
p5221
sg21
VKrushnai Mangal Karyalaya
p5222
sa(dp5223
g16
V18.480297
p5224
sg18
I298
sg19
V73.805065
p5225
sg21
VWarje gaon highway
p5226
sa(dp5227
g16
V18.4898951
p5228
sg18
I301
sg19
V73.7867629
p5229
sg21
VAditya garden city
p5230
sa(dp5231
g16
V18.506527
p5232
sg18
I304
sg19
V73.7794093
p5233
sg21
VChandani chauk
p5234
sa(dp5235
g16
V18.5204303
p5236
sg18
I306
sg19
V73.8567437
p5237
sg21
VNisarg Aaditya group
p5238
sa(dp5239
g16
V18.5204303
p5240
sg18
I310
sg19
V73.8567437
p5241
sg21
VSayali Restaurant
p5242
sa(dp5243
g16
V18.6514906
p5244
sg18
I313
sg19
V73.7804729
p5245
sg21
VYashoda Nivas
p5246
sa(dp5247
g16
V18.5204303
p5248
sg18
I315
sg19
V73.8567437
p5249
sg21
VChha. Shivaji Krida Sankul
p5250
sa(dp5251
g16
V18.5204303
p5252
sg18
I320
sg19
V73.8567437
p5253
sg21
VPadmji Paper Mill
p5254
sa(dp5255
g16
V18.5204303
p5256
sg18
I323
sg19
V73.8567437
p5257
sg21
VJakatnaka pavanapul
p5258
sa(dp5259
g16
V18.645121
p5260
sg18
I327
sg19
V73.789908
p5261
sg21
VMehta hospital
p5262
sa(dp5263
g16
V18.649997
p5264
sg18
I330
sg19
V73.785165
p5265
sg21
VAkurdi khandoba chauk
p5266
sa(dp5267
g16
V18.631265
p5268
sg18
I333
sg19
V73.777034
p5269
sg21
VNigadi jakat naka
p5270
sa(dp5271
g16
V18.681848
p5272
sg18
I336
sg19
V73.819537
p5273
sg21
VMoshi phata chikhali
p5274
sa(dp5275
g16
V18.5089845
p5276
sg18
I340
sg19
V73.9320785
p5277
sg21
VSukhwani
p5278
sa(dp5279
g16
V18.5204303
p5280
sg18
I343
sg19
V73.8567437
p5281
sg21
VYashwant Nagar Telco Road
p5282
sa(dp5283
g16
V18.632471
p5284
sg18
I346
sg19
V73.81993
p5285
sg21
VMaster bakery
p5286
sa(dp5287
g16
V18.620129
p5288
sg18
I349
sg19
V73.85043
p5289
sg21
VPCMT
p5290
sa(dp5291
g16
V18.5204303
p5292
sg18
I352
sg19
V73.8567437
p5293
sg21
VWadilal
p5294
sa(dp5295
g16
V18.5204303
p5296
sg18
I354
sg19
V73.8567437
p5297
sg21
VDeichi Company
p5298
sa(dp5299
g16
V18.482217
p5300
sg18
I358
sg19
V73.80789
p5301
sg21
VTapodham
p5302
sa(dp5303
g16
V18.503754
p5304
sg18
I361
sg19
V73.820291
p5305
sg21
VMaruti Mandir Karve Road
p5306
sa(dp5307
g16
V18.6338043
p5308
sg18
I364
sg19
V73.7791795
p5309
sg21
VChinchwad gaon
p5310
sa(dp5311
g16
V18.619874
p5312
sg18
I368
sg19
V73.801411
p5313
sg21
VDelux
p5314
sa(dp5315
g16
V18.477816
p5316
sg18
I371
sg19
V73.8975826
p5317
sg21
VBhatnagar
p5318
sa(dp5319
g16
V18.559766
p5320
sg18
I373
sg19
V73.815308
p5321
sg21
VPimpri  chauk Bus stand
p5322
sa(dp5323
g16
V18.5204303
p5324
sg18
I376
sg19
V73.8567437
p5325
sg21
VVishal nagar C ward office
p5326
sa(dp5327
g16
V18.5204303
p5328
sg18
I380
sg19
V73.8567437
p5329
sg21
VTulashi chemikals
p5330
sa(dp5331
g16
V18.455919
p5332
sg18
I383
sg19
V73.768468
p5333
sg21
VNDA gate Kondhava gate
p5334
sa(dp5335
g16
V18.466865
p5336
sg18
I387
sg19
V73.779361
p5337
sg21
VAhire gate Phata
p5338
sa(dp5339
g16
V18.4558393
p5340
sg18
I390
sg19
V73.8209234
p5341
sg21
VShivane gaon
p5342
sa(dp5343
g16
V18.5204303
p5344
sg18
I393
sg19
V73.8567437
p5345
sg21
VQueen Mary Technical
p5346
sa(dp5347
g16
V18.566363
p5348
sg18
I396
sg19
V73.831334
p5349
sg21
VBhaurao Patil Chowk
p5350
sa(dp5351
g16
V18.5685281
p5352
sg18
I400
sg19
V73.8458948
p5353
sg21
VAlegaonkar High school
p5354
sa(dp5355
g16
V18.48971
p5356
sg18
I403
sg19
V73.857638
p5357
sg21
VBhapkar Petrol Pump City pride
p5358
sa(dp5359
g16
V18.436368
p5360
sg18
I407
sg19
V73.86054
p5361
sg21
VMangdewadi Petrol Pump
p5362
sa(dp5363
g16
V18.5204303
p5364
sg18
I410
sg19
V73.8567437
p5365
sg21
VStage kramank 6
p5366
sa(dp5367
g16
V18.5204303
p5368
sg18
I414
sg19
V73.8567437
p5369
sg21
VGogalwadi Phata
p5370
sa(dp5371
g16
V18.5204303
p5372
sg18
I416
sg19
V73.8567437
p5373
sg21
VShindewadi Gujarwadi
p5374
sa(dp5375
g16
V18.5204303
p5376
sg18
I419
sg19
V73.8567437
p5377
sg21
VShivapur Bag Post office
p5378
sa(dp5379
g16
V18.9805417
p5380
sg18
I424
sg19
V73.1375421
p5381
sg21
VRaje Phata
p5382
sa(dp5383
g16
V18.5204303
p5384
sg18
I427
sg19
V73.8567437
p5385
sg21
VArvi phata
p5386
sa(dp5387
g16
V18.5204303
p5388
sg18
I430
sg19
V73.8567437
p5389
sg21
VKondhanpur Gaon
p5390
sa(dp5391
g16
V18.5204303
p5392
sg18
I433
sg19
V73.8567437
p5393
sg21
VRahatawade Gaon
p5394
sa(dp5395
g16
V18.666661
p5396
sg18
I437
sg19
V73.795941
p5397
sg21
VKrushnanagar Corner
p5398
sa(dp5399
g16
V18.664508
p5400
sg18
I441
sg19
V73.786573
p5401
sg21
VYamunanagar Corner
p5402
sa(dp5403
g16
V18.649997
p5404
sg18
I444
sg19
V73.785165
p5405
sg21
VAkurdi Khandoba Chowk
p5406
sa(dp5407
g16
V18.512879
p5408
sg18
I448
sg19
V73.8562411
p5409
sg21
VMandai
p5410
sa(dp5411
g16
V18.51045
p5412
sg18
I451
sg19
V73.819635
p5413
sg21
VMore vidyalaya
p5414
sa(dp5415
g16
V18.5094546
p5416
sg18
I453
sg19
V73.8136711
p5417
sg21
VAnand nagar paud road
p5418
sa(dp5419
g16
V18.50766
p5420
sg18
I455
sg19
V73.808069
p5421
sg21
VVanaz Corner
p5422
sa(dp5423
g16
V18.5069596
p5424
sg18
I458
sg19
V73.7966899
p5425
sg21
VBharti nagar
p5426
sa(dp5427
g16
V18.4973349
p5428
sg18
I461
sg19
V73.7886276
p5429
sg21
VBavdhan Khind 
p5430
sa(dp5431
g16
V18.5269904
p5432
sg18
I464
sg19
V73.7829405
p5433
sg21
VRamnagar Bharat Electronics
p5434
sa(dp5435
g16
V18.5287353
p5436
sg18
I469
sg19
V73.8157056
p5437
sg21
VPanchwati
p5438
sa(dp5439
g16
V18.539926
p5440
sg18
I471
sg19
V73.816823
p5441
sg21
VNCL Market
p5442
sa(dp5443
g16
V18.555833
p5444
sg18
I474
sg19
V73.822598
p5445
sg21
VPune Vidyapeeth
p5446
sa(dp5447
g16
V18.549212
p5448
sg18
I477
sg19
V73.8509
p5449
sg21
VKrutrim reshim paidas kendra
p5450
sa(dp5451
g16
V18.6060873
p5452
sg18
I481
sg19
V73.8227917
p5453
sg21
VKasrawadi
p5454
sa(dp5455
g16
V18.5204303
p5456
sg18
I483
sg19
V73.8567437
p5457
sg21
VHA Factory D Y Patil college
p5458
sa(dp5459
g16
V18.5204303
p5460
sg18
I488
sg19
V73.8567437
p5461
sg21
VKohima line
p5462
sa(dp5463
g16
V18.6807904
p5464
sg18
I491
sg19
V73.7470502
p5465
sg21
VGarden city
p5466
sa(dp5467
g16
V18.6804696
p5468
sg18
I494
sg19
V73.7342706
p5469
sg21
VDehuroad railway staion
p5470
sa(dp5471
g16
V18.686313
p5472
sg18
I497
sg19
V73.722184
p5473
sg21
VDehu road police station
p5474
sa(dp5475
g16
V18.5204303
p5476
sg18
I501
sg19
V73.8567437
p5477
sg21
VAmarjai Begdewadi phata
p5478
sa(dp5479
g16
V18.702951
p5480
sg18
I505
sg19
V73.687747
p5481
sg21
VSomatne Phata
p5482
sa(dp5483
g16
V18.718266
p5484
sg18
I508
sg19
V73.680375
p5485
sg21
VBhandari hospital
p5486
sa(dp5487
g16
V18.5086456
p5488
sg18
I511
sg19
V73.8448469
p5489
sg21
VParanjpe Hospital
p5490
sa(dp5491
g16
V18.5204303
p5492
sg18
I513
sg19
V73.8567437
p5493
sg21
VEgale Plax Petrol Pump
p5494
sa(dp5495
g16
V18.5204303
p5496
sg18
I517
sg19
V73.8567437
p5497
sg21
VWadgaon Maval Phata
p5498
sa(dp5499
g16
V18.4489065
p5500
sg18
I520
sg19
V73.8263226
p5501
sg21
VNerhe Phata
p5502
sa(dp5503
g16
V18.6368016
p5504
sg18
I523
sg19
V73.7463147
p5505
sg21
VPunavale
p5506
sa(dp5507
g16
V18.620593
p5508
sg18
I526
sg19
V73.76071
p5509
sg21
VDairy Farm
p5510
sa(dp5511
g16
V18.5277437
p5512
sg18
I530
sg19
V73.8533007
p5513
sg21
VCollege of engineering pune
p5514
sa(dp5515
g16
V18.536592
p5516
sg18
I534
sg19
V73.9425951
p5517
sg21
VKumbhar Wada
p5518
sa(dp5519
g16
V18.549831
p5520
sg18
I538
sg19
V73.893714
p5521
sg21
Vwadia bangala
p5522
sa(dp5523
g16
V18.555108
p5524
sg18
I541
sg19
V73.905778
p5525
sg21
VRamwadi Jakatnaka
p5526
sa(dp5527
g16
V18.5204303
p5528
sg18
I544
sg19
V73.8567437
p5529
sg21
VISL Company
p5530
sa(dp5531
g16
V18.5204303
p5532
sg18
I546
sg19
V73.8567437
p5533
sg21
VDharmanagar 5 va Mail
p5534
sa(dp5535
g16
V18.509763
p5536
sg18
I551
sg19
V73.8762713
p5537
sg21
VAgrawal Colony
p5538
sa(dp5539
g16
V18.5204303
p5540
sg18
I553
sg19
V73.8567437
p5541
sg21
V15 number Manjari Gaon Phata
p5542
sa(dp5543
g16
V18.4714191
p5544
sg18
I557
sg19
V73.9596509
p5545
sg21
VPhursungi gaon phata
p5546
sa(dp5547
g16
V18.491042
p5548
sg18
I561
sg19
V74.007742
p5549
sg21
VWakvasti
p5550
sa(dp5551
g16
V18.488876
p5552
sg18
I564
sg19
V74.027791
p5553
sg21
VLoni station
p5554
sa(dp5555
g16
V18.488692
p5556
sg18
I568
sg19
V74.045981
p5557
sg21
VBorkar wasti
p5558
sa(dp5559
g16
V18.5062211
p5560
sg18
I571
sg19
V73.9126174
p5561
sg21
VKalbhor wasti solapur rd.
p5562
sa(dp5563
g16
V18.5204303
p5564
sg18
I574
sg19
V73.8567437
p5565
sg21
VNaygaon phata
p5566
sa(dp5567
g16
V18.5204303
p5568
sg18
I577
sg19
V73.8567437
p5569
sg21
VYadav Wasti Chaufula 
p5570
sa(dp5571
g16
V18.5204303
p5572
sg18
I580
sg19
V73.8567437
p5573
sg21
VMalran 
p5574
sa(dp5575
g16
V18.5204303
p5576
sg18
I583
sg19
V73.8567437
p5577
sg21
VBodhe wasti 
p5578
sa(dp5579
g16
V18.4938624
p5580
sg18
I586
sg19
V74.1369524
p5581
sg21
VRailway Station Uruli Kanchan 
p5582
sa(dp5583
g16
V18.5204303
p5584
sg18
I590
sg19
V73.8567437
p5585
sg21
VLakshminagar Corner
p5586
sa(dp5587
g16
V18.5032467
p5588
sg18
I593
sg19
V73.8645797
p5589
sg21
VGhorpade peth colony
p5590
sa(dp5591
g16
V18.50801
p5592
sg18
I597
sg19
V73.879397
p5593
sg21
VJuna pul gate
p5594
sa(dp5595
g16
V18.6517098
p5596
sg18
I600
sg19
V73.7683784
p5597
sg21
VNigadi
p5598
sa(dp5599
g16
V18.656994
p5600
sg18
I603
sg19
V73.765219
p5601
sg21
Vchinchwad station
p5602
sa(dp5603
g16
V18.558521
p5604
sg18
I605
sg19
V73.845195
p5605
sg21
VH A Factory
p5606
sa(dp5607
g16
V18.5204303
p5608
sg18
I607
sg19
V73.8567437
p5609
sg21
VAmunition Factory Road
p5610
sa(dp5611
g16
V18.5167978
p5612
sg18
I611
sg19
V73.8079434
p5613
sg21
VSutardara
p5614
sa(dp5615
g16
V18.510875
p5616
sg18
I613
sg19
V73.818328
p5617
sg21
VLIC Colony Paud Road
p5618
sa(dp5619
g16
V18.513793
p5620
sg18
I617
sg19
V73.841438
p5621
sg21
VDeccan corner sambhaji pul
p5622
sa(dp5623
g16
V18.509029
p5624
sg18
I621
sg19
V73.858027
p5625
sg21
VShahu chauk
p5626
sa(dp5627
g16
V18.543975
p5628
sg18
I624
sg19
V73.782667
p5629
sg21
VPandavnagar
p5630
sa(dp5631
g16
V18.508215
p5632
sg18
I627
sg19
V73.853702
p5633
sg21
VMaruti Mandir 
p5634
sa(dp5635
g16
V18.4673041
p5636
sg18
I630
sg19
V73.8330844
p5637
sg21
VWadgaon budruk
p5638
sa(dp5639
g16
V18.5332247
p5640
sg18
I633
sg19
V73.8253649
p5641
sg21
VVaidwadi
p5642
sa(dp5643
g16
V18.506623
p5644
sg18
I635
sg19
V73.906536
p5645
sg21
VKalubai mandir solapur road
p5646
sa(dp5647
g16
V18.516026
p5648
sg18
I639
sg19
V73.907262
p5649
sg21
VRailway Crossing Gorpadi 
p5650
sa(dp5651
g16
V18.529399
p5652
sg18
I644
sg19
V73.902506
p5653
sg21
VAnant Talkies
p5654
sa(dp5655
g16
V18.52509
p5656
sg18
I646
sg19
V73.894597
p5657
sg21
VGhorpadi Post Office
p5658
sa(dp5659
g16
V18.4909333
p5660
sg18
I650
sg19
V73.7924618
p5661
sg21
VSai sayaji nagar
p5662
sa(dp5663
g16
V18.5214325
p5664
sg18
I653
sg19
V73.8676347
p5665
sg21
V15 August Lodge Somwar Peth
p5666
sa(dp5667
g16
V18.4665827
p5668
sg18
I656
sg19
V73.8661646
p5669
sg21
VChintamani Nagar
p5670
sa(dp5671
g16
V18.5204303
p5672
sg18
I659
sg19
V73.8567437
p5673
sg21
VKothari Corner
p5674
sa(dp5675
g16
V18.510551
p5676
sg18
I662
sg19
V73.834878
p5677
sg21
VPetrol Pump Rajendranagar
p5678
sa(dp5679
g16
V18.5204303
p5680
sg18
I666
sg19
V73.8567437
p5681
sg21
VSurgeon quarters
p5682
sa(dp5683
g16
V18.569811
p5684
sg18
I669
sg19
V73.841791
p5685
sg21
VKirloskar Oil Engine Manaji Bag
p5686
sa(dp5687
g16
V18.5204303
p5688
sg18
I673
sg19
V73.8567437
p5689
sg21
VRamkrushna Mangal Karyalaya
p5690
sa(dp5691
g16
V18.5204303
p5692
sg18
I677
sg19
V73.8567437
p5693
sg21
VKumbare Park
p5694
sa(dp5695
g16
V18.5204303
p5696
sg18
I680
sg19
V73.8567437
p5697
sg21
VMahesh Vidyalaya
p5698
sa(dp5699
g16
V18.562652
p5700
sg18
I683
sg19
V73.927638
p5701
sg21
VTata gaurdroom Kharadi phata
p5702
sa(dp5703
g16
V18.5111468
p5704
sg18
I687
sg19
V73.8371508
p5705
sg21
VSambhaji chauk Ganesh nagar
p5706
sa(dp5707
g16
V18.5204303
p5708
sg18
I690
sg19
V73.8567437
p5709
sg21
VParanj company Relax hotel
p5710
sa(dp5711
g16
V18.532675
p5712
sg18
I694
sg19
V73.932838
p5713
sg21
VSainathnagar Mundhava
p5714
sa(dp5715
g16
V18.507083
p5716
sg18
I698
sg19
V73.776682
p5717
sg21
VDagade wasti
p5718
sa(dp5719
g16
V18.5204303
p5720
sg18
I701
sg19
V73.8567437
p5721
sg21
VMariaai Mandir Bhugaon
p5722
sa(dp5723
g16
V19.2282646
p5724
sg18
I705
sg19
V73.1492512
p5725
sg21
VMathalwadi
p5726
sa(dp5727
g16
V18.5204303
p5728
sg18
I708
sg19
V73.8567437
p5729
sg21
VNerolac Paint Company
p5730
sa(dp5731
g16
V18.5204303
p5732
sg18
I712
sg19
V73.8567437
p5733
sg21
VMail dagad kramank 21
p5734
sa(dp5735
g16
V18.5204303
p5736
sg18
I716
sg19
V73.8567437
p5737
sg21
VVishkar India company
p5738
sa(dp5739
g16
V18.417774
p5740
sg18
I719
sg19
V73.856749
p5741
sg21
VStage no.7
p5742
sa(dp5743
g16
V18.5204303
p5744
sg18
I722
sg19
V73.8567437
p5745
sg21
VShivregoan Phata
p5746
sa(dp5747
g16
V18.5204303
p5748
sg18
I725
sg19
V73.8567437
p5749
sg21
VWarje Gaon Nasrapur Road
p5750
sa(dp5751
g16
V18.269826
p5752
sg18
I729
sg19
V73.880271
p5753
sg21
VSangvi Company
p5754
sa(dp5755
g16
V18.250726
p5756
sg18
I732
sg19
V73.880518
p5757
sg21
VBhairoba Mandir Nasarapur
p5758
sa(dp5759
g16
V18.506624
p5760
sg18
I736
sg19
V73.897567
p5761
sg21
VBhauraba nala
p5762
sa(dp5763
g16
V18.5204303
p5764
sg18
I739
sg19
V73.8567437
p5765
sg21
VJambhulkar Chauk 
p5766
sa(dp5767
g16
V18.4989051
p5768
sg18
I743
sg19
V73.9025463
p5769
sg21
VKedari Nagar
p5770
sa(dp5771
g16
V18.4821866
p5772
sg18
I746
sg19
V73.9132023
p5773
sg21
VHeaven Park
p5774
sa(dp5775
g16
V18.5204303
p5776
sg18
I748
sg19
V73.8567437
p5777
sg21
VFatimanagar Municipal shala
p5778
sa(dp5779
g16
V18.510843
p5780
sg18
I752
sg19
V73.868377
p5781
sg21
VRamoshi gate
p5782
sa(dp5783
g16
V18.5184641
p5784
sg18
I753
sg19
V73.8792278
p5785
sg21
VA D camp chauk
p5786
sa(dp5787
g16
V18.515925
p5788
sg18
I756
sg19
V73.860553
p5789
sg21
VSonya Maruti Chowk
p5790
sa(dp5791
g16
V18.5006674
p5792
sg18
I759
sg19
V73.9524683
p5793
sg21
VMauli bangala
p5794
sa(dp5795
g16
V18.494252
p5796
sg18
I762
sg19
V73.857966
p5797
sg21
VP and T colony
p5798
sa(dp5799
g16
V18.5233409
p5800
sg18
I765
sg19
V73.8792113
p5801
sg21
VPoona club
p5802
sa(dp5803
g16
V18.5515816
p5804
sg18
I768
sg19
V73.9161418
p5805
sg21
VSainikwadi
p5806
sa(dp5807
g16
V18.5535156
p5808
sg18
I771
sg19
V73.9301037
p5809
sg21
VWadgao sheri
p5810
sa(dp5811
g16
V18.5204303
p5812
sg18
I774
sg19
V73.8567437
p5813
sg21
VGunjan Theature
p5814
sa(dp5815
g16
V18.558997
p5816
sg18
I778
sg19
V73.892022
p5817
sg21
VYerwada post office
p5818
sa(dp5819
g16
V18.4579553
p5820
sg18
I782
sg19
V73.7919103
p5821
sg21
VFive nine area
p5822
sa(dp5823
g16
V18.590694
p5824
sg18
I785
sg19
V73.91543
p5825
sg21
VOfficers mess
p5826
sa(dp5827
g16
V18.5204303
p5828
sg18
I788
sg19
V73.8567437
p5829
sg21
VJakat Naka Khese Ali
p5830
sa(dp5831
g16
V18.5204303
p5832
sg18
I791
sg19
V73.8567437
p5833
sg21
VKhandave Bungalow
p5834
sa(dp5835
g16
V18.5204303
p5836
sg18
I794
sg19
V73.8567437
p5837
sg21
VKakde Vasti Lohgaon
p5838
sa(dp5839
g16
V18.6121054
p5840
sg18
I798
sg19
V73.9395631
p5841
sg21
VWadgaon Shinde
p5842
sa(dp5843
g16
V18.5502413
p5844
sg18
I801
sg19
V73.9186657
p5845
sg21
VVimannagar Gate
p5846
sa(dp5847
g16
V18.6911825
p5848
sg18
I805
sg19
V73.8005839
p5849
sg21
VDehugaon
p5850
sa(dp5851
g16
V18.5204303
p5852
sg18
I808
sg19
V73.8567437
p5853
sg21
VKudba Kruti Manmohan
p5854
sa(dp5855
g16
V18.6898223
p5856
sg18
I812
sg19
V73.7514631
p5857
sg21
VChincholi
p5858
sa(dp5859
g16
V18.6804696
p5860
sg18
I814
sg19
V73.7342706
p5861
sg21
VDehu road railway station
p5862
sa(dp5863
g16
V18.571469
p5864
sg18
I819
sg19
V73.838028
p5865
sg21
VCantonment Jakat Naka
p5866
sa(dp5867
g16
V18.5204303
p5868
sg18
I822
sg19
V73.8567437
p5869
sg21
VBadade wasti
p5870
sa(dp5871
g16
V18.5204303
p5872
sg18
I825
sg19
V73.8567437
p5873
sg21
VRajendra pipe company
p5874
sa(dp5875
g16
V18.5204303
p5876
sg18
I828
sg19
V73.8567437
p5877
sg21
VPrayag Dham Phata 
p5878
sa(dp5879
g16
V18.564873
p5880
sg18
I832
sg19
V73.943693
p5881
sg21
VJanakbaba Darga
p5882
sa(dp5883
g16
V18.580514
p5884
sg18
I835
sg19
V73.977547
p5885
sg21
VSatav High School
p5886
sa(dp5887
g16
V18.5730161
p5888
sg18
I837
sg19
V74.0216544
p5889
sg21
VKesanand phata
p5890
sa(dp5891
g16
V18.616206
p5892
sg18
I840
sg19
V74.019564
p5893
sg21
VJagtap Dairy Lonikand
p5894
sa(dp5895
g16
V18.656031
p5896
sg18
I843
sg19
V74.0153231
p5897
sg21
VPower House Phulgaon
p5898
sa(dp5899
g16
V18.7277318
p5900
sg18
I848
sg19
V73.6544392
p5901
sg21
VKadam Wasti
p5902
sa(dp5903
g16
V18.5204303
p5904
sg18
I851
sg19
V73.8567437
p5905
sg21
VBapurao Smarak
p5906
sa(dp5907
g16
V18.5204303
p5908
sg18
I854
sg19
V73.8567437
p5909
sg21
VShinde Wasti Burkegaon
p5910
sa(dp5911
g16
V18.573082
p5912
sg18
I857
sg19
V73.834668
p5913
sg21
VShitole mala
p5914
sa(dp5915
g16
V18.5204303
p5916
sg18
I860
sg19
V73.8567437
p5917
sg21
VMehandale Guarage
p5918
sa(dp5919
g16
V18.501747
p5920
sg18
I863
sg19
V73.827077
p5921
sg21
VKarnataka High school
p5922
sa(dp5923
g16
V18.5204303
p5924
sg18
I866
sg19
V73.8567437
p5925
sg21
VMadhusanchay Society
p5926
sa(dp5927
g16
V18.4947072
p5928
sg18
I869
sg19
V73.8202957
p5929
sg21
VSahvas Soc
p5930
sa(dp5931
g16
V18.465671
p5932
sg18
I872
sg19
V73.777036
p5933
sg21
VIngale Colony
p5934
sa(dp5935
g16
V18.4574675
p5936
sg18
I875
sg19
V73.7698492
p5937
sg21
VKondhava Dhavde
p5938
sa(dp5939
g16
V18.5204303
p5940
sg18
I878
sg19
V73.8567437
p5941
sg21
VLakaki Bungalow
p5942
sa(dp5943
g16
V18.5204303
p5944
sg18
I881
sg19
V73.8567437
p5945
sg21
VKusalkar Putala
p5946
sa(dp5947
g16
V18.6142312
p5948
sg18
I885
sg19
V73.7756244
p5949
sg21
VLink road
p5950
sa(dp5951
g16
V18.5204303
p5952
sg18
I888
sg19
V73.8567437
p5953
sg21
VChinchwade Nagar Corner Chinchwad Road
p5954
sa(dp5955
g16
V18.4897798
p5956
sg18
I892
sg19
V73.8255379
p5957
sg21
VMatoshri nagar
p5958
sa(dp5959
g16
V18.6426993
p5960
sg18
I894
sg19
V73.7783951
p5961
sg21
VD Y Patil college Akrdi
p5962
sa(dp5963
g16
V18.638229
p5964
sg18
I899
sg19
V73.766063
p5965
sg21
VChintamani Chowk
p5966
sa(dp5967
g16
V18.5204303
p5968
sg18
I902
sg19
V73.8567437
p5969
sg21
VPhadtare Wasti
p5970
sa(dp5971
g16
V18.5204303
p5972
sg18
I904
sg19
V73.8567437
p5973
sg21
VZ F Stearing Company
p5974
sa(dp5975
g16
V18.6165282
p5976
sg18
I907
sg19
V73.8742054
p5977
sg21
VBhandari nivas
p5978
sa(dp5979
g16
V18.5204303
p5980
sg18
I910
sg19
V73.8567437
p5981
sg21
VWajewadi Chaufula
p5982
sa(dp5983
g16
V18.728978
p5984
sg18
I914
sg19
V74.061998
p5985
sg21
VKarandi gaon
p5986
sa(dp5987
g16
V18.589549
p5988
sg18
I916
sg19
V73.774258
p5989
sg21
VMaruti Mandir Wakad
p5990
sa(dp5991
g16
V18.5204303
p5992
sg18
I921
sg19
V73.8567437
p5993
sg21
VKalasgaon
p5994
sa(dp5995
g16
V18.5804032
p5996
sg18
I923
sg19
V74.633697
p5997
sg21
V512 Factory Gate 
p5998
sa(dp5999
g16
V18.5571993
p6000
sg18
I926
sg19
V73.8453063
p6001
sg21
VKhadki Police Station
p6002
sa(dp6003
g16
V18.5636712
p6004
sg18
I930
sg19
V73.8194832
p6005
sg21
VSpicer college
p6006
sa(dp6007
g16
V18.5639463
p6008
sg18
I934
sg19
V73.8102927
p6009
sg21
VDapodi Gaon
p6010
sa(dp6011
g16
V18.575547
p6012
sg18
I937
sg19
V73.815303
p6013
sg21
Vpanyachi takai sangvi
p6014
sa(dp6015
g16
V18.602959
p6016
sg18
I941
sg19
V73.795395
p6017
sg21
VRahatani gaon
p6018
sa(dp6019
g16
V18.5204303
p6020
sg18
I944
sg19
V73.8567437
p6021
sg21
VSaurabh company tambe company
p6022
sa(dp6023
g16
V18.6150264
p6024
sg18
I947
sg19
V73.7933809
p6025
sg21
VDhangar Nagar Kalewadi
p6026
sa(dp6027
g16
V18.5204303
p6028
sg18
I950
sg19
V73.8567437
p6029
sg21
VAvinash Mangal Karyalaya
p6030
sa(dp6031
g16
V18.5204303
p6032
sg18
I954
sg19
V73.8567437
p6033
sg21
VKrushnamandir Corner
p6034
sa(dp6035
g16
V18.5204303
p6036
sg18
I958
sg19
V73.8567437
p6037
sg21
VDurwankur lawns
p6038
sa(dp6039
g16
V18.634142
p6040
sg18
I961
sg19
V73.874902
p6041
sg21
VBhosari phata
p6042
sa(dp6043
g16
V18.5204303
p6044
sg18
I964
sg19
V73.8567437
p6045
sg21
VNirma company
p6046
sa(dp6047
g16
V18.5204303
p6048
sg18
I967
sg19
V73.8567437
p6049
sg21
VChincheche jhad
p6050
sa(dp6051
g16
V18.5204303
p6052
sg18
I969
sg19
V73.8567437
p6053
sg21
VSai Lila nagar Kate Wasti
p6054
sa(dp6055
g16
V18.5229149
p6056
sg18
I973
sg19
V73.8752894
p6057
sg21
VGeneral post office
p6058
sa(dp6059
g16
V18.515391
p6060
sg18
I976
sg19
V73.867056
p6061
sg21
VModern Bakery Nana peth
p6062
sa(dp6063
g16
V18.5602954
p6064
sg18
I979
sg19
V73.8074237
p6065
sg21
VCentury company
p6066
sa(dp6067
g16
V18.5204303
p6068
sg18
I983
sg19
V73.8567437
p6069
sg21
VYashwant nagar telco road
p6070
sa(dp6071
g16
V18.6462123
p6072
sg18
I987
sg19
V73.8020208
p6073
sg21
VSanghavi College
p6074
sa(dp6075
g16
V18.603942
p6076
sg18
I990
sg19
V73.824525
p6077
sg21
VMIDC Chinchwad
p6078
sa(dp6079
g16
V18.632986
p6080
sg18
I993
sg19
V73.785336
p6081
sg21
VElpro Company
p6082
sa(dp6083
g16
V18.516228
p6084
sg18
I996
sg19
V73.848865
p6085
sg21
VKesari Wada
p6086
sa(dp6087
g16
V18.5204303
p6088
sg18
I998
sg19
V73.8567437
p6089
sg21
VSomanagar Society
p6090
sa(dp6091
g16
V18.461203
p6092
sg18
I1001
sg19
V73.877481
p6093
sg21
VLadies Hostel 
p6094
sa(dp6095
g16
V18.5078689
p6096
sg18
I1004
sg19
V73.8400685
p6097
sg21
VSmashanbhumi Kondhava
p6098
sa(dp6099
g16
V18.5204303
p6100
sg18
I1008
sg19
V73.8567437
p6101
sg21
VMangalben company Sai service
p6102
sa(dp6103
g16
V18.4702707
p6104
sg18
I1012
sg19
V73.9001742
p6105
sg21
VNIBM Road
p6106
sa(dp6107
g16
V18.506623
p6108
sg18
I1015
sg19
V73.906536
p6109
sg21
VKalubai mandir
p6110
sa(dp6111
g16
V18.5204303
p6112
sg18
I1018
sg19
V73.8567437
p6113
sg21
VVikrikar karyalaya
p6114
sa(dp6115
g16
V18.6653272
p6116
sg18
I1021
sg19
V73.767643
p6117
sg21
VTransport Nagari
p6118
sa(dp6119
g16
V18.5204303
p6120
sg18
I1025
sg19
V73.8567437
p6121
sg21
VSindhunagar Corner
p6122
sa(dp6123
g16
V18.6497062
p6124
sg18
I1028
sg19
V73.7778363
p6125
sg21
VMhalsakant Chowk
p6126
sa(dp6127
g16
V18.645269
p6128
sg18
I1031
sg19
V73.770629
p6129
sg21
VPrachi
p6130
sa(dp6131
g16
V18.660823
p6132
sg18
I1033
sg19
V73.775577
p6133
sg21
VAkurdi Police Chowky
p6134
sa(dp6135
g16
V18.6374555
p6136
sg18
I1037
sg19
V73.7764901
p6137
sg21
VBijlinagar
p6138
sa(dp6139
g16
V18.6324164
p6140
sg18
I1040
sg19
V73.7800298
p6141
sg21
VOm Sairam complex
p6142
sa(dp6143
g16
V18.540509
p6144
sg18
I1043
sg19
V73.830538
p6145
sg21
VIndrayani nagar Corner
p6146
sa(dp6147
g16
V18.504407
p6148
sg18
I1046
sg19
V73.850632
p6149
sg21
VMahila Mandal
p6150
sa(dp6151
g16
V18.523355
p6152
sg18
I1049
sg19
V73.669998
p6153
sg21
VPower House Ghotawade
p6154
sa(dp6155
g16
V18.5204303
p6156
sg18
I1053
sg19
V73.8567437
p6157
sg21
VSNZ chemical company
p6158
sa(dp6159
g16
V18.5204303
p6160
sg18
I1056
sg19
V73.8567437
p6161
sg21
VTrimurti bunglow
p6162
sa(dp6163
g16
V18.5601154
p6164
sg18
I1059
sg19
V73.7871306
p6165
sg21
VBaner gaon
p6166
sa(dp6167
g16
V18.5204303
p6168
sg18
I1062
sg19
V73.8567437
p6169
sg21
VKalamkar wasti
p6170
sa(dp6171
g16
V18.574579
p6172
sg18
I1065
sg19
V73.755451
p6173
sg21
VMhalunge Gaon
p6174
sa(dp6175
g16
V18.526533
p6176
sg18
I1068
sg19
V73.843815
p6177
sg21
VPolice line Gokhalenagar
p6178
sa(dp6179
g16
V18.5204303
p6180
sg18
I1073
sg19
V73.8567437
p6181
sg21
VGandhi Training Corner
p6182
sa(dp6183
g16
V18.5204303
p6184
sg18
I1076
sg19
V73.8567437
p6185
sg21
VAlhat wasti
p6186
sa(dp6187
g16
V18.5095721
p6188
sg18
I1079
sg19
V73.9591266
p6189
sg21
VGhule wasti
p6190
sa(dp6191
g16
V18.5287449
p6192
sg18
I1082
sg19
V73.8966848
p6193
sg21
VRailway crossing
p6194
sa(dp6195
g16
V18.5115727
p6196
sg18
I1085
sg19
V73.9447994
p6197
sg21
VMalwadi
p6198
sa(dp6199
g16
V18.5204303
p6200
sg18
I1088
sg19
V73.8567437
p6201
sg21
VAnnasaheb magar vidya mandir
p6202
sa(dp6203
g16
V18.503691
p6204
sg18
I1092
sg19
V73.838893
p6205
sg21
VDattawadi pul
p6206
sa(dp6207
g16
V18.497971
p6208
sg18
I1095
sg19
V73.84092
p6209
sg21
VJal shudhikaran kendra singhroad rd
p6210
sa(dp6211
g16
V18.489225
p6212
sg18
I1099
sg19
V73.830747
p6213
sg21
VRajaramPool
p6214
sa(dp6215
g16
V18.475317
p6216
sg18
I1102
sg19
V73.816215
p6217
sg21
VStar garden
p6218
sa(dp6219
g16
V18.507555
p6220
sg18
I1105
sg19
V73.9275318
p6221
sg21
VTilekar wasti
p6222
sa(dp6223
g16
V18.5158057
p6224
sg18
I1107
sg19
V73.9271644
p6225
sg21
VMegarpatta City
p6226
sa(dp6227
g16
V18.533802
p6228
sg18
I1111
sg19
V73.929892
p6229
sg21
VMundhva Gaon
p6230
sa(dp6231
g16
V18.533485
p6232
sg18
I1114
sg19
V73.920663
p6233
sg21
VKachare wasti
p6234
sa(dp6235
g16
V18.530591
p6236
sg18
I1117
sg19
V73.910983
p6237
sg21
VPingale wasti
p6238
sa(dp6239
g16
V18.4573215
p6240
sg18
I1120
sg19
V73.8507279
p6241
sg21
VDhankawadi
p6242
sa(dp6243
g16
V18.5204303
p6244
sg18
I1123
sg19
V73.8567437
p6245
sg21
VPolice Line Modern College
p6246
sa(dp6247
g16
V18.522617
p6248
sg18
I1128
sg19
V73.862728
p6249
sg21
VKamala nehru hospital
p6250
sa(dp6251
g16
V18.565143
p6252
sg18
I1131
sg19
V73.850239
p6253
sg21
VSuply depot
p6254
sa(dp6255
g16
V18.5980935
p6256
sg18
I3
sg19
V73.7995844
p6257
sg21
VMIDC Phata
p6258
sa(dp6259
g16
V18.48971
p6260
sg18
I155
sg19
V73.857638
p6261
sg21
VBhapkar petrol pump City Pride
p6262
sa(dp6263
g16
V18.5204303
p6264
sg18
I312
sg19
V73.8567437
p6265
sg21
VShivsagar mangal karyalay
p6266
sa(dp6267
g16
V18.509391
p6268
sg18
I454
sg19
V73.811764
p6269
sg21
VJai bhavani 
p6270
sa(dp6271
g16
V18.5111468
p6272
sg18
I604
sg19
V73.8371508
p6273
sg21
VChinchwad chauk
p6274
sa(dp6275
g16
V18.5127916
p6276
sg18
I754
sg19
V73.8676347
p6277
sg21
VNana peth
p6278
sa(dp6279
g16
V18.589886
p6280
sg18
I1135
sg19
V73.81952
p6281
sg21
VPooja hospital
p6282
sa(dp6283
g16
V18.506624
p6284
sg18
I1138
sg19
V73.897567
p6285
sg21
VBhairoba Nagar
p6286
sa(dp6287
g16
V18.5204303
p6288
sg18
I1141
sg19
V73.8567437
p6289
sg21
VShikrapur Phata
p6290
sa(dp6291
g16
V18.5204303
p6292
sg18
I1144
sg19
V73.8567437
p6293
sg21
VDarekar Wasti
p6294
sa(dp6295
g16
V18.6485712
p6296
sg18
I1147
sg19
V74.0623244
p6297
sg21
VKoregaon Bhima
p6298
sa(dp6299
g16
V18.5204303
p6300
sg18
I1150
sg19
V73.8567437
p6301
sg21
VLieson Company
p6302
sa(dp6303
g16
V18.5472058
p6304
sg18
I1153
sg19
V73.9403908
p6305
sg21
VChandan nagar
p6306
sa(dp6307
g16
V18.549831
p6308
sg18
I1156
sg19
V73.893714
p6309
sg21
VWadia bunglow
p6310
sa(dp6311
g16
V18.5204303
p6312
sg18
I1159
sg19
V73.8567437
p6313
sg21
VSubhanshah Darga
p6314
sa(dp6315
g16
V18.581456
p6316
sg18
I1162
sg19
V73.815663
p6317
sg21
VKrishna bajar
p6318
sa(dp6319
g16
V18.669867
p6320
sg18
I1165
sg19
V73.891174
p6321
sg21
VDehu phata
p6322
sa(dp6323
g16
V18.5204303
p6324
sg18
I1167
sg19
V73.8567437
p6325
sg21
VGokhale mala sankalp garden
p6326
sa(dp6327
g16
V18.5204303
p6328
sg18
I1171
sg19
V73.8567437
p6329
sg21
VDurvankur Lawns
p6330
sa(dp6331
g16
V18.5204303
p6332
sg18
I1174
sg19
V73.8567437
p6333
sg21
VChh.Shivaji krida sankul
p6334
sa(dp6335
g16
V18.5058449
p6336
sg18
I1178
sg19
V73.8946277
p6337
sg21
VParade ground
p6338
sa(dp6339
g16
V18.609318
p6340
sg18
I1181
sg19
V73.873257
p6341
sg21
VDighigaon
p6342
sa(dp6343
g16
V18.620916
p6344
sg18
I1184
sg19
V73.874102
p6345
sg21
VTelco godown
p6346
sa(dp6347
g16
V18.5204303
p6348
sg18
I1186
sg19
V73.8567437
p6349
sg21
VNavin ST stand
p6350
sa(dp6351
g16
V18.495727
p6352
sg18
I1189
sg19
V73.869256
p6353
sg21
VCanol Jhopadpatti
p6354
sa(dp6355
g16
V18.5204303
p6356
sg18
I1194
sg19
V73.8567437
p6357
sg21
VShelke wasti
p6358
sa(dp6359
g16
V18.6745203
p6360
sg18
I1197
sg19
V73.7168927
p6361
sg21
VIndraprabha mamurdi
p6362
sa(dp6363
g16
V18.492424
p6364
sg18
I1200
sg19
V73.9025463
p6365
sg21
VVikasnagar
p6366
sa(dp6367
g16
V18.6385292
p6368
sg18
I1203
sg19
V73.8477874
p6369
sg21
VWakhar mahamandal bhosari
p6370
sa(dp6371
g16
V18.665352
p6372
sg18
I1206
sg19
V73.84863
p6373
sg21
VBorate Vasti
p6374
sa(dp6375
g16
V18.4868701
p6376
sg18
I1209
sg19
V73.8676347
p6377
sg21
VChakan market yard
p6378
sa(dp6379
g16
V18.5204303
p6380
sg18
I1212
sg19
V73.8567437
p6381
sg21
VRohakal Phata
p6382
sa(dp6383
g16
V18.7602664
p6384
sg18
I1215
sg19
V73.8630346
p6385
sg21
VKhadi Machine Chakan
p6386
sa(dp6387
g16
V18.5204303
p6388
sg18
I1218
sg19
V73.8567437
p6389
sg21
VKanda Lasoon Sanshodhan Kendra
p6390
sa(dp6391
g16
V18.495552
p6392
sg18
I1223
sg19
V73.667893
p6393
sg21
VKirloskar
p6394
sa(dp6395
g16
V18.5204303
p6396
sg18
I1225
sg19
V73.8567437
p6397
sg21
VKhale banglaow
p6398
sa(dp6399
g16
V18.5204303
p6400
sg18
I1229
sg19
V73.8567437
p6401
sg21
VDatta Mandir Marnewadi
p6402
sa(dp6403
g16
V18.5204303
p6404
sg18
I1232
sg19
V73.8567437
p6405
sg21
VShivnarwadi
p6406
sa(dp6407
g16
V18.5204303
p6408
sg18
I1235
sg19
V73.8567437
p6409
sg21
VBhilarwadi chauk
p6410
sa(dp6411
g16
V18.5204303
p6412
sg18
I1238
sg19
V73.8567437
p6413
sg21
VMehendale garage
p6414
sa(dp6415
g16
V18.510551
p6416
sg18
I1241
sg19
V73.834878
p6417
sg21
VPetrol pump rajendranagar
p6418
sa(dp6419
g16
V18.5204303
p6420
sg18
I1244
sg19
V73.8567437
p6421
sg21
VZila Parishad School Yewlewadi
p6422
sa(dp6423
g16
V18.4516009
p6424
sg18
I1248
sg19
V73.8781088
p6425
sg21
VShri Shatrunjay jain temple
p6426
sa(dp6427
g16
V18.5273078
p6428
sg18
I1252
sg19
V73.8286185
p6429
sg21
VRajas Soc. Corner
p6430
sa(dp6431
g16
V18.4673041
p6432
sg18
I1255
sg19
V73.8330844
p6433
sg21
VChavan mala
p6434
sa(dp6435
g16
V18.5204303
p6436
sg18
I1259
sg19
V73.8567437
p6437
sg21
VVitthalwadi Mandir Masulkar
p6438
sa(dp6439
g16
V18.5204303
p6440
sg18
I1263
sg19
V73.8567437
p6441
sg21
VCable company
p6442
sa(dp6443
g16
V18.603829
p6444
sg18
I1266
sg19
V73.776539
p6445
sg21
VAmralewadi phata
p6446
sa(dp6447
g16
V18.5204303
p6448
sg18
I1269
sg19
V73.8567437
p6449
sg21
VSanti company
p6450
sa(dp6451
g16
V18.5204303
p6452
sg18
I1271
sg19
V73.8567437
p6453
sg21
VVitthalwadi phata
p6454
sa(dp6455
g16
V18.5204303
p6456
sg18
I1274
sg19
V73.8567437
p6457
sg21
VST stand Paudgaon
p6458
sa(dp6459
g16
V18.5204303
p6460
sg18
I1277
sg19
V73.8567437
p6461
sg21
VKekan gas agency
p6462
sa(dp6463
g16
V18.5204303
p6464
sg18
I1280
sg19
V73.8567437
p6465
sg21
VVidyanagar Swapnaganga bangalow
p6466
sa(dp6467
g16
V18.5545369
p6468
sg18
I1283
sg19
V73.9418603
p6469
sg21
VRakshak Society Kharadi
p6470
sa(dp6471
g16
V18.5015
p6472
sg18
I1287
sg19
V73.858617
p6473
sg21
VSwargate corner
p6474
sa(dp6475
g16
V18.593565
p6476
sg18
I1290
sg19
V73.708268
p6477
sg21
VInfosys Phase 2
p6478
sa(dp6479
g16
V18.6496322
p6480
sg18
I1294
sg19
V73.7448437
p6481
sg21
VDharmaraj Mangal Karyalaya Ravet
p6482
sa(dp6483
g16
V18.5204303
p6484
sg18
I1297
sg19
V73.8567437
p6485
sg21
VTata Motors IT Park 
p6486
sa(dp6487
g16
V18.5204303
p6488
sg18
I1300
sg19
V73.8567437
p6489
sg21
VParamhansa Corner
p6490
sa(dp6491
g16
V18.5381935
p6492
sg18
I1304
sg19
V73.7812713
p6493
sg21
VShivshankar Chowk
p6494
sa(dp6495
g16
V18.5190432
p6496
sg18
I1307
sg19
V73.7773579
p6497
sg21
VShagun chauk
p6498
sa(dp6499
g16
V18.5204303
p6500
sg18
I1311
sg19
V73.8567437
p6501
sg21
VAvinash mangal karyalay
p6502
sa(dp6503
g16
V18.5204303
p6504
sg18
I1315
sg19
V73.8567437
p6505
sg21
VGondhalenagr
p6506
sa(dp6507
g16
V18.476421
p6508
sg18
I1318
sg19
V73.957156
p6509
sg21
VPower House Phursungi
p6510
sa(dp6511
g16
V18.4833333
p6512
sg18
I1322
sg19
V74.1333333
p6513
sg21
VBhadale Wasti Devachi Uruli 
p6514
sa(dp6515
g16
V18.413397
p6516
sg18
I1327
sg19
V74.007566
p6517
sg21
VZendewadi 
p6518
sa(dp6519
g16
V18.383438
p6520
sg18
I1331
sg19
V74.015624
p6521
sg21
VDivegaon phata 
p6522
sa(dp6523
g16
V18.3546681
p6524
sg18
I1334
sg19
V74.0258145
p6525
sg21
VWaghere college 
p6526
sa(dp6527
g16
V18.5204303
p6528
sg18
I1337
sg19
V73.8567437
p6529
sg21
VBinawat Township
p6530
sa(dp6531
g16
V18.484989
p6532
sg18
I1341
sg19
V73.939395
p6533
sg21
VKaleborate Nagar
p6534
sa(dp6535
g16
V18.5204303
p6536
sg18
I1344
sg19
V73.8567437
p6537
sg21
VDevpari Maharaj Mandir
p6538
sa(dp6539
g16
V18.715819
p6540
sg18
I1348
sg19
V73.93528
p6541
sg21
VWadgaon Ghenand Shala
p6542
sa(dp6543
g16
V18.7374043
p6544
sg18
I1352
sg19
V73.9565551
p6545
sg21
VShel Pimpalgaon
p6546
sa(dp6547
g16
V18.5204303
p6548
sg18
I1353
sg19
V73.8567437
p6549
sg21
VRajsthan Hostel
p6550
sa(dp6551
g16
V18.733205
p6552
sg18
I1354
sg19
V73.974489
p6553
sg21
VChincholi Phata
p6554
sa(dp6555
g16
V18.725428
p6556
sg18
I1357
sg19
V73.998793
p6557
sg21
VSubhash Vidyalaya
p6558
sa(dp6559
g16
V18.5204303
p6560
sg18
I1360
sg19
V73.8567437
p6561
sg21
VVitthai mangal karyalaya
p6562
sa(dp6563
g16
V18.5623007
p6564
sg18
I1363
sg19
V73.8955291
p6565
sg21
VRakshak Soc. Ganpati mandir
p6566
sa(dp6567
g16
V18.5204303
p6568
sg18
I1367
sg19
V73.8567437
p6569
sg21
VSahitya Parishad Peru Gate
p6570
sa(dp6571
g16
V18.5204303
p6572
sg18
I1370
sg19
V73.8567437
p6573
sg21
VVasundara Lawns
p6574
sa(dp6575
g16
V18.666305
p6576
sg18
I1373
sg19
V73.776112
p6577
sg21
VAnkush chauk
p6578
sa(dp6579
g16
V18.5204303
p6580
sg18
I1376
sg19
V73.8567437
p6581
sg21
VJambhalkar Wasti
p6582
sa(dp6583
g16
V18.5204303
p6584
sg18
I1379
sg19
V73.8567437
p6585
sg21
VLipanewasti
p6586
sa(dp6587
g16
V18.438998
p6588
sg18
I1383
sg19
V73.862968
p6589
sg21
VSai Industries Company
p6590
sa(dp6591
g16
V18.5204303
p6592
sg18
I1387
sg19
V73.8567437
p6593
sg21
VSarkari Vishram Gruh
p6594
sa(dp6595
g16
V18.5204303
p6596
sg18
I1390
sg19
V73.8567437
p6597
sg21
VSangamwadi gaon
p6598
sa(dp6599
g16
V18.528565
p6600
sg18
I1393
sg19
V73.906239
p6601
sg21
VShirke Company
p6602
sa(dp6603
g16
V18.4973349
p6604
sg18
I1396
sg19
V73.7886276
p6605
sg21
VBavdhan khind
p6606
sa(dp6607
g16
V18.5204303
p6608
sg18
I1399
sg19
V73.8567437
p6609
sg21
VGarware Bungalow
p6610
sa(dp6611
g16
V18.4595744
p6612
sg18
I1402
sg19
V73.7610241
p6613
sg21
VGol Market NDA
p6614
sa(dp6615
g16
V18.531395
p6616
sg18
I1406
sg19
V73.811645
p6617
sg21
VD2 Circle
p6618
sa(dp6619
g16
V18.5204303
p6620
sg18
I1408
sg19
V73.8567437
p6621
sg21
VRama Bistake park
p6622
sa(dp6623
g16
V18.5204303
p6624
sg18
I1411
sg19
V73.8567437
p6625
sg21
VSaurabh company Tambe Shala
p6626
sa(dp6627
g16
V18.5204303
p6628
sg18
I1415
sg19
V73.8567437
p6629
sg21
VShivshakti Mandir
p6630
sa(dp6631
g16
V18.5867193
p6632
sg18
I1419
sg19
V73.8154394
p6633
sg21
VBhairavnagar Pimple Gurav
p6634
sa(dp6635
g16
V18.5204303
p6636
sg18
I1422
sg19
V73.8567437
p6637
sg21
VJai bhavani godown 
p6638
sa(dp6639
g16
V18.4882495
p6640
sg18
I1425
sg19
V73.9499426
p6641
sg21
VBhekarai Nagar
p6642
sa(dp6643
g16
V18.541845
p6644
sg18
I1428
sg19
V73.82766
p6645
sg21
VShivaji nagar S T stand
p6646
sa(dp6647
g16
V18.495112
p6648
sg18
I1433
sg19
V73.894591
p6649
sg21
VWanvadi Bazar 
p6650
sa(dp6651
g16
V18.622309
p6652
sg18
I1436
sg19
V73.8460874
p6653
sg21
VMahatma Phule Vasahat
p6654
sa(dp6655
g16
V18.4687712
p6656
sg18
I1439
sg19
V73.8830701
p6657
sg21
VKondhava Khurd
p6658
sa(dp6659
g16
V18.657166
p6660
sg18
I1442
sg19
V73.899111
p6661
sg21
VDabhade Wasti Charholi
p6662
sa(dp6663
g16
V18.5204303
p6664
sg18
I1446
sg19
V73.8567437
p6665
sg21
VQueen company 
p6666
sa(dp6667
g16
V18.5204303
p6668
sg18
I1449
sg19
V73.8567437
p6669
sg21
VHanuman Mandir Charminar 
p6670
sa(dp6671
g16
V18.436634
p6672
sg18
I1453
sg19
V73.918233
p6673
sg21
VWadachi Wadi
p6674
sa(dp6675
g16
V18.5753534
p6676
sg18
I1456
sg19
V73.8147277
p6677
sg21
VPWD gate
p6678
sa(dp6679
g16
V18.492024
p6680
sg18
I1459
sg19
V73.900162
p6681
sg21
VJagtap chauk 
p6682
sa(dp6683
g16
V18.529951
p6684
sg18
I1462
sg19
V73.851043
p6685
sg21
VBank of Maharashtra 
p6686
sa(dp6687
g16
V18.6667547
p6688
sg18
I1466
sg19
V73.7838215
p6689
sg21
VYamuna Nagar
p6690
sa(dp6691
g16
V18.717599
p6692
sg18
I1469
sg19
V73.76779
p6693
sg21
VDehugaon grampanchayat
p6694
sa(dp6695
g16
V18.6466046
p6696
sg18
I1472
sg19
V73.8004248
p6697
sg21
VAkurdi police chauky
p6698
sa(dp6699
g16
V18.5104337
p6700
sg18
I1476
sg19
V73.8595057
p6701
sg21
VNaik Hospital
p6702
sa(dp6703
g16
V18.5204303
p6704
sg18
I1479
sg19
V73.8567437
p6705
sg21
VNanekar park
p6706
sa(dp6707
g16
V18.5204303
p6708
sg18
I1482
sg19
V73.8567437
p6709
sg21
VChinchwade nagar corner Akurdi road
p6710
sa(dp6711
g16
V18.5133118
p6712
sg18
I1486
sg19
V73.82879
p6713
sg21
VWipro company Circle
p6714
sa(dp6715
g16
V18.5204303
p6716
sg18
I1488
sg19
V73.8567437
p6717
sg21
VIndrayani nagar Corner Jayanand Road
p6718
sa(dp6719
g16
V18.475317
p6720
sg18
I1493
sg19
V73.816215
p6721
sg21
VStar gardan
p6722
sa(dp6723
g16
V18.5724541
p6724
sg18
I1496
sg19
V73.8813671
p6725
sg21
VKasturba general hospital
p6726
sa(dp6727
g16
V18.5204303
p6728
sg18
I1499
sg19
V73.8567437
p6729
sg21
VKekan ges agency
p6730
sa(dp6731
g16
V18.506761
p6732
sg18
I1502
sg19
V73.94
p6733
sg21
VSadu nana wasti
p6734
sa(dp6735
g16
V18.508202
p6736
sg18
I1503
sg19
V73.941246
p6737
sg21
VVitthalwadi Mandir Sadesataranali
p6738
sa(dp6739
g16
V18.5141791
p6740
sg18
I1506
sg19
V73.9499426
p6741
sg21
VSadesataranali
p6742
sa(dp6743
g16
V18.5583214
p6744
sg18
I1509
sg19
V73.88601
p6745
sg21
VVidi Kamgar Vasahat Yerawada
p6746
sa(dp6747
g16
V18.5867193
p6748
sg18
I1514
sg19
V73.8154394
p6749
sg21
VBhairavnagar pimple gurav
p6750
sa(dp6751
g16
V18.5204303
p6752
sg18
I1517
sg19
V73.8567437
p6753
sg21
VShivshakti mandir
p6754
sa(dp6755
g16
V18.5396184
p6756
sg18
I1521
sg19
V73.7955869
p6757
sg21
VPashan gaon
p6758
sa(dp6759
g16
V18.544885
p6760
sg18
I1524
sg19
V73.779118
p6761
sg21
VAbhinav college
p6762
sa(dp6763
g16
V18.4053927
p6764
sg18
I1558
sg19
V73.7689717
p6765
sg21
VKrishnai water park
p6766
sa(dp6767
g16
V18.5204303
p6768
sg18
I1561
sg19
V73.8567437
p6769
sg21
VTilak Bag
p6770
sa(dp6771
g16
V18.5204303
p6772
sg18
I1564
sg19
V73.8567437
p6773
sg21
VPingle Wasti
p6774
sa(dp6775
g16
V18.533852
p6776
sg18
I1567
sg19
V73.923752
p6777
sg21
VDimond watch company
p6778
sa(dp6779
g16
V18.5204303
p6780
sg18
I1571
sg19
V73.8567437
p6781
sg21
VKeshavnagar pul
p6782
sa(dp6783
g16
V18.6343474
p6784
sg18
I1573
sg19
V73.8411712
p6785
sg21
VIdrayani nagar bhosari
p6786
sa(dp6787
g16
V18.5135398
p6788
sg18
I1578
sg19
V73.8533876
p6789
sg21
VBalsadan
p6790
sa(dp6791
g16
V18.656031
p6792
sg18
I1580
sg19
V74.0153231
p6793
sg21
VMalwadi Phulgaon
p6794
sa(dp6795
g16
V18.5204303
p6796
sg18
I1583
sg19
V73.8567437
p6797
sg21
VKukut Palan Kendra
p6798
sa(dp6799
g16
V18.4489072
p6800
sg18
I1587
sg19
V73.8642681
p6801
sg21
VBhushan Soc
p6802
sa(dp6803
g16
V18.441734
p6804
sg18
I1590
sg19
V73.790413
p6805
sg21
VHagwane Padwal
p6806
sa(dp6807
g16
V18.4220836
p6808
sg18
I1593
sg19
V73.8014693
p6809
sg21
VNandoshi
p6810
sa(dp6811
g16
V18.6285832
p6812
sg18
I1596
sg19
V73.7878659
p6813
sg21
VManik colony
p6814
sa(dp6815
g16
V18.5204303
p6816
sg18
I1599
sg19
V73.8567437
p6817
sg21
VWaghire height
p6818
sa(dp6819
g16
V18.456512
p6820
sg18
I1602
sg19
V73.960813
p6821
sg21
VRaut wasti 
p6822
sa(dp6823
g16
V18.5204303
p6824
sg18
I1605
sg19
V73.8567437
p6825
sg21
VDhayreshwar Mandir
p6826
sa(dp6827
g16
V18.54515
p6828
sg18
I1609
sg19
V73.884236
p6829
sg21
VMoze Adhyapak Vidyalaya Yerwada
p6830
sa(dp6831
g16
V18.43151
p6832
sg18
I1613
sg19
V73.717793
p6833
sg21
VAgalambe Gaon
p6834
sa(dp6835
g16
V18.5204303
p6836
sg18
I1617
sg19
V73.8567437
p6837
sg21
VKunjir mala
p6838
sa(dp6839
g16
V18.51942
p6840
sg18
I1620
sg19
V74.046046
p6841
sg21
VPower house theur
p6842
sa(dp6843
g16
V18.5204303
p6844
sg18
I1623
sg19
V73.8567437
p6845
sg21
VKunjir Wadi Goan 
p6846
sa(dp6847
g16
V18.5204303
p6848
sg18
I1626
sg19
V73.8567437
p6849
sg21
VChowdhari Bag 
p6850
sa(dp6851
g16
V18.5089382
p6852
sg18
I1630
sg19
V73.8275705
p6853
sg21
VDamodar nagar
p6854
sa(dp6855
g16
V18.5204303
p6856
sg18
I1633
sg19
V73.8567437
p6857
sg21
VChaitanya bangala
p6858
sa(dp6859
g16
V18.5204303
p6860
sg18
I1635
sg19
V73.8567437
p6861
sg21
VDeasi poultry farm
p6862
sa(dp6863
g16
V18.453876
p6864
sg18
I1639
sg19
V73.873541
p6865
sg21
VKhandoba Mandir
p6866
sa(dp6867
g16
V18.471058
p6868
sg18
I1642
sg19
V73.87523
p6869
sg21
VAaimata Mandir
p6870
sa(dp6871
g16
V18.6718661
p6872
sg18
I1645
sg19
V73.9653715
p6873
sg21
VPower house markal
p6874
sa(dp6875
g16
V18.670046
p6876
sg18
I1649
sg19
V73.984985
p6877
sg21
VIndrayani pul
p6878
sa(dp6879
g16
V18.4723729
p6880
sg18
I1652
sg19
V73.9370843
p6881
sg21
VSawant College
p6882
sa(dp6883
g16
V18.4693262
p6884
sg18
I1653
sg19
V73.8687372
p6885
sg21
VRamya Nagari
p6886
sa(dp6887
g16
V18.5204303
p6888
sg18
I1656
sg19
V73.8567437
p6889
sg21
VAutadewadi Phata
p6890
sa(dp6891
g16
V18.5204303
p6892
sg18
I1659
sg19
V73.8567437
p6893
sg21
VKudale farm
p6894
sa(dp6895
g16
V18.5204303
p6896
sg18
I1662
sg19
V73.8567437
p6897
sg21
VTikone Godown
p6898
sa(dp6899
g16
V18.5204303
p6900
sg18
I1664
sg19
V73.8567437
p6901
sg21
VDnyaneshwar Paduka Wade Bolhai
p6902
sa(dp6903
g16
V18.5204303
p6904
sg18
I1668
sg19
V73.8567437
p6905
sg21
VBagal Vasti
p6906
sa(dp6907
g16
V18.5204303
p6908
sg18
I1671
sg19
V73.8567437
p6909
sg21
VWade Bolhai
p6910
sa(dp6911
g16
V18.4797807
p6912
sg18
I1675
sg19
V73.9412863
p6913
sg21
VMhasoba wasti
p6914
sa(dp6915
g16
V18.5164908
p6916
sg18
I1678
sg19
V73.8480476
p6917
sg21
VRamchandranagar
p6918
sa(dp6919
g16
V18.4868947
p6920
sg18
I1681
sg19
V73.855506
p6921
sg21
VSantnagar Chowk Taware Colony
p6922
sa(dp6923
g16
V18.6653272
p6924
sg18
I1685
sg19
V73.767643
p6925
sg21
VTransport nagar
p6926
sa(dp6927
g16
V18.5204303
p6928
sg18
I1688
sg19
V73.8567437
p6929
sg21
VDhayareshwar Industries
p6930
sa(dp6931
g16
V18.5204303
p6932
sg18
I1693
sg19
V73.8567437
p6933
sg21
VShirole Petrol Pump
p6934
sa(dp6935
g16
V18.5204303
p6936
sg18
I1695
sg19
V73.8567437
p6937
sg21
VVittbhatti XPS Company
p6938
sa(dp6939
g16
V18.6980909
p6940
sg18
I1699
sg19
V73.6580359
p6941
sg21
VParandhwadi
p6942
sa(dp6943
g16
V18.63525
p6944
sg18
I1702
sg19
V73.851463
p6945
sg21
VSadgurunagar
p6946
sa(dp6947
g16
V18.525017
p6948
sg18
I1705
sg19
V73.967346
p6949
sg21
VDhavade wasti
p6950
sa(dp6951
g16
V18.562405
p6952
sg18
I1708
sg19
V73.833546
p6953
sg21
V40 Aundh Road
p6954
sa(dp6955
g16
V18.5111468
p6956
sg18
I1711
sg19
V73.8371508
p6957
sg21
VSambhaji Chowk Ganesh Nagar
p6958
sa(dp6959
g16
V18.5054837
p6960
sg18
I1714
sg19
V73.8532734
p6961
sg21
VAbhinav kala vidyalaya
p6962
sa(dp6963
g16
V18.5204303
p6964
sg18
I1718
sg19
V73.8567437
p6965
sg21
VShitole wasti Soos
p6966
sa(dp6967
g16
V18.4503623
p6968
sg18
I1722
sg19
V73.7995397
p6969
sg21
VNandegaon
p6970
sa(dp6971
g16
V18.545401
p6972
sg18
I1724
sg19
V73.713225
p6973
sg21
VShitole wasti Nandegaon
p6974
sa(dp6975
g16
V18.7161991
p6976
sg18
I1728
sg19
V73.5526032
p6977
sg21
VRautwadi
p6978
sa(dp6979
g16
V18.5204303
p6980
sg18
I1731
sg19
V73.8567437
p6981
sg21
VBhairoba Pumping Station
p6982
sa(dp6983
g16
V18.5204303
p6984
sg18
I1733
sg19
V73.8567437
p6985
sg21
VGulmohar City Military Stadium
p6986
sa(dp6987
g16
V18.5204303
p6988
sg18
I1737
sg19
V73.8567437
p6989
sg21
VRangehill Circle 1
p6990
sa(dp6991
g16
V18.401176
p6992
sg18
I1741
sg19
V73.721465
p6993
sg21
VShantiban
p6994
sa(dp6995
g16
V18.5183409
p6996
sg18
I1134
sg19
V73.840436
p6997
sg21
VRaviraj Hotel
p6998
sasS'_prefetch_done'
p6999
I00
sS'_for_write'
p7000
I00
sS'query'
p7001
g1
(cdjango.db.models.sql.query
Query
p7002
g3
NtRp7003
(dp7004
S'aggregate_select_mask'
p7005
NsS'_aggregate_select_cache'
p7006
NsS'extra'
p7007
g1
(cdjango.utils.datastructures
SortedDict
p7008
c__builtin__
dict
p7009
(dtRp7010
(dp7011
S'keyOrder'
p7012
(lp7013
sbsS'join_map'
p7014
(dp7015
(NS'routes_stop'
p7016
NNtp7017
(g7016
tp7018
ssS'related_select_fields'
p7019
(lp7020
sS'extra_tables'
p7021
(tsS'select'
p7022
(lp7023
(g7016
g18
tp7024
a(g7016
g21
tp7025
a(g7016
g16
tp7026
a(g7016
g19
tp7027
asS'quote_cache'
p7028
(dp7029
sS'rev_join_map'
p7030
(dp7031
g7016
g7017
ssS'used_aliases'
p7032
c__builtin__
set
p7033
((ltRp7034
sS'order_by'
p7035
(lp7036
sS'distinct'
p7037
I00
sS'dupe_avoidance'
p7038
(dp7039
sS'default_ordering'
p7040
I01
sS'group_by'
p7041
NsS'select_for_update'
p7042
I00
sS'select_related'
p7043
I00
sS'deferred_loading'
p7044
(g7033
((ltRp7045
I01
tp7046
sS'select_fields'
p7047
(lp7048
g18
ag21
ag16
ag19
asS'alias_map'
p7049
(dp7050
g7016
(g7016
g7016
NNNNI00
tp7051
ssS'max_depth'
p7052
I5
sS'standard_ordering'
p7053
I01
sS'extra_order_by'
p7054
(tsS'distinct_fields'
p7055
(lp7056
sS'tables'
p7057
(lp7058
g7016
asS'aggregates'
p7059
g1
(g7008
g7009
(dtRp7060
(dp7061
g7012
(lp7062
sbsS'extra_select_mask'
p7063
NsS'select_for_update_nowait'
p7064
I00
sS'_extra_select_cache'
p7065
NsS'low_mark'
p7066
I0
sS'alias_refcount'
p7067
g1
(g7008
g7009
(dp7068
g7016
I1
stRp7069
(dp7070
g7012
(lp7071
g7016
asbsS'related_select_cols'
p7072
(lp7073
sS'default_cols'
p7074
I01
sS'ordering_aliases'
p7075
(lp7076
sS'having'
p7077
g1
(cdjango.db.models.sql.where
WhereNode
p7078
g3
NtRp7079
(dp7080
S'connector'
p7081
S'AND'
p7082
sS'negated'
p7083
I00
sS'children'
p7084
(lp7085
sS'subtree_parents'
p7086
(lp7087
sbsS'included_inherited_models'
p7088
(dp7089
sS'table_map'
p7090
(dp7091
g7016
(lp7092
g7016
assS'where_class'
p7093
g7078
sS'model'
p7094
croutes.models
Stop
p7095
sS'where'
p7096
g1
(g7078
g3
NtRp7097
(dp7098
g7081
g7082
sg7083
I00
sg7084
(lp7099
sg7086
(lp7100
sbsS'high_mark'
p7101
NsS'filter_is_sticky'
p7102
I00
sbsg7094
g7095
sS'_fields'
p7103
(tsS'field_names'
p7104
(lp7105
g18
ag21
ag16
ag19
asb.